EXPORTS 
	?$TSS0@?1???$castTo@V?$TypedArray@_J@data@matlab@@$00@detail@data@matlab@@YA?AV?$TypedArray@_J@23@V?$shared_ptr@VReferenceImpl@detail@data@matlab@@@std@@@Z@4HA 	 DATA
	?$TSS0@?1???$createScalar@_J@ArrayFactory@data@matlab@@QEAA?AV?$TypedArray@_J@23@_J@Z@4HA 	 DATA
	?$TSS0@?1???$getElement@_J@detail@data@matlab@@YAAEA_JV?$shared_ptr@VReferenceImpl@detail@data@matlab@@@std@@@Z@4HA 	 DATA
	?$TSS0@?1???$get_static_exception_object@Ubad_alloc_@exception_detail@mwboost@@@exception_detail@mwboost@@YA?AVexception_ptr@2@XZ@4HA 	 DATA
	?$TSS0@?1???$get_static_exception_object@Ubad_exception_@exception_detail@mwboost@@@exception_detail@mwboost@@YA?AVexception_ptr@2@XZ@4HA 	 DATA
	?$TSS0@?1???$setElement@VArray@data@matlab@@@detail@data@matlab@@YAXPEAVReferenceImpl@123@VArray@23@H@Z@4HA 	 DATA
	?$TSS0@?1???0?$TypedArray@_J@data@matlab@@QEAA@$$QEAVArray@23@@Z@4HA 	 DATA
	?$TSS0@?1???0ArrayFactory@data@matlab@@QEAA@XZ@4HA 	 DATA
	?$TSS0@?1???A?$ArrayElementTypedRef@VStruct@data@matlab@@$00@data@matlab@@QEAA?AV?$ArrayElementTypedRef@VArray@data@matlab@@$00@23@V?$basic_string@DU?$char_traits@D@std@@V?$allocator@D@2@@std@@@Z@4HA 	 DATA
	?$TSS0@?1???A?$ArrayElementTypedRef@VStruct@data@matlab@@$0A@@data@matlab@@QEAA?AV?$ArrayElementTypedRef@VArray@data@matlab@@$0A@@23@V?$basic_string@DU?$char_traits@D@std@@V?$allocator@D@2@@std@@@Z@4HA 	 DATA
	?$TSS0@?1???A?$TypedArray@VStruct@data@matlab@@@data@matlab@@QEAA?AV?$ArrayElementTypedRef@VStruct@data@matlab@@$0A@@23@_K@Z@4HA 	 DATA
	?$TSS0@?1???A?$TypedArray@VStruct@data@matlab@@@data@matlab@@QEBA?AV?$ArrayElementTypedRef@VStruct@data@matlab@@$00@23@_K@Z@4HA 	 DATA
	?$TSS0@?1???A?$TypedArray@_J@data@matlab@@QEBA?AV?$ArrayElementTypedRef@_J$00@23@_K@Z@4HA 	 DATA
	?$TSS0@?1???AStruct@data@matlab@@QEBA?AVArray@23@V?$basic_string@DU?$char_traits@D@std@@V?$allocator@D@2@@std@@@Z@4HA 	 DATA
	?$TSS0@?1???R<lambda_18bde30140702ba20a566c9dc393b8c0>@@QEBA@PEAVArrayImpl@impl@data@matlab@@@Z@4HA 	 DATA
	?$TSS0@?1???R<lambda_2615407b98e1f3a14023b76f0dedc381>@@QEBA@PEAVReferenceImpl@detail@data@matlab@@@Z@4HA 	 DATA
	?$TSS0@?1???R<lambda_49bc69670bef5877f460780ec06c4b58>@@QEBA@PEAVArrayImpl@impl@data@matlab@@@Z@4HA 	 DATA
	?$TSS0@?1???R<lambda_9f3a4d0362104a3bede0405fafec76e1>@@QEBA@PEAVNameListImpl@detail@data@matlab@@@Z@4HA 	 DATA
	?$TSS0@?1???R<lambda_a4c5f97d4391fb4c09103a727c16defd>@@QEBA@PEAVArrayFactoryImpl@impl@data@matlab@@@Z@4HA 	 DATA
	?$TSS0@?1??createCharArray@ArrayFactory@data@matlab@@QEAA?AVCharArray@34@AEBV?$basic_string@DU?$char_traits@D@std@@V?$allocator@D@2@@std@@@Z@4HA 	 DATA
	?$TSS0@?1??createStructArray@ArrayFactory@data@matlab@@QEAA?AVStructArray@34@V?$vector@_KV?$allocator@_K@std@@@std@@V?$vector@V?$basic_string@DU?$char_traits@D@std@@V?$allocator@D@2@@std@@V?$allocator@V?$basic_string@DU?$char_traits@D@std@@V?$allocator@D@2@@std@@@2@@7@@Z@4HA 	 DATA
	?$TSS0@?1??getType@Array@data@matlab@@QEBA?AW4ArrayType@34@XZ@4HA 	 DATA
	?$TSS0@?4???$resolveFunction@P6AHHHPEA_N@Z@detail@data@matlab@@YAP6AHHHPEA_N@ZW4FunctionType@123@@Z@4HA 	 DATA
	?$TSS0@?4???$resolveFunction@P6AHPEAPEAVArrayFactoryImpl@impl@data@matlab@@@Z@detail@data@matlab@@YAP6AHPEAPEAVArrayFactoryImpl@impl@23@@ZW4FunctionType@123@@Z@4HA 	 DATA
	?$TSS0@?4???$resolveFunction@P6AHPEAVArrayFactoryImpl@impl@data@matlab@@HPEBXPEAPEAVArrayImpl@234@@Z@detail@data@matlab@@YAP6AHPEAVArrayFactoryImpl@impl@23@HPEBXPEAPEAVArrayImpl@523@@ZW4FunctionType@123@@Z@4HA 	 DATA
	?$TSS0@?4???$resolveFunction@P6AHPEAVArrayFactoryImpl@impl@data@matlab@@PEA_K_KPEAVNameListImpl@detail@34@PEAPEAVArrayImpl@234@@Z@detail@data@matlab@@YAP6AHPEAVArrayFactoryImpl@impl@23@PEA_K_KPEAVNameListImpl@123@PEAPEAVArrayImpl@523@@ZW4FunctionType@123@@Z@4HA 	 DATA
	?$TSS0@?4???$resolveFunction@P6AHPEAVArrayFactoryImpl@impl@data@matlab@@PEBD_KPEAPEAVArrayImpl@234@@Z@detail@data@matlab@@YAP6AHPEAVArrayFactoryImpl@impl@23@PEBD_KPEAPEAVArrayImpl@523@@ZW4FunctionType@123@@Z@4HA 	 DATA
	?$TSS0@?4???$resolveFunction@P6AHPEAVArrayImpl@impl@data@matlab@@PEAH@Z@detail@data@matlab@@YAP6AHPEAVArrayImpl@impl@23@PEAH@ZW4FunctionType@123@@Z@4HA 	 DATA
	?$TSS0@?4???$resolveFunction@P6AHPEAVArrayImpl@impl@data@matlab@@_KPEAPEAVReferenceImpl@detail@34@@Z@detail@data@matlab@@YAP6AHPEAVArrayImpl@impl@23@_KPEAPEAVReferenceImpl@123@@ZW4FunctionType@123@@Z@4HA 	 DATA
	?$TSS0@?4???$resolveFunction@P6AHPEAVReferenceImpl@detail@data@matlab@@H_N@Z@detail@data@matlab@@YAP6AHPEAVReferenceImpl@123@H_N@ZW4FunctionType@123@@Z@4HA 	 DATA
	?$TSS0@?4???$resolveFunction@P6AHPEAVReferenceImpl@detail@data@matlab@@PEAPEAX@Z@detail@data@matlab@@YAP6AHPEAVReferenceImpl@123@PEAPEAX@ZW4FunctionType@123@@Z@4HA 	 DATA
	?$TSS0@?4???$resolveFunction@P6AHPEAVReferenceImpl@detail@data@matlab@@PEAVArrayImpl@impl@34@@Z@detail@data@matlab@@YAP6AHPEAVReferenceImpl@123@PEAVArrayImpl@impl@23@@ZW4FunctionType@123@@Z@4HA 	 DATA
	?$TSS0@?4???$resolveFunction@P6AHPEAVReferenceImpl@detail@data@matlab@@PEBD_K@Z@detail@data@matlab@@YAP6AHPEAVReferenceImpl@123@PEBD_K@ZW4FunctionType@123@@Z@4HA 	 DATA
	?$TSS0@?4???$resolveFunction@P6AHPEAVReferenceImpl@detail@data@matlab@@PEBD_KPEAPEAVArrayImpl@impl@34@@Z@detail@data@matlab@@YAP6AHPEAVReferenceImpl@123@PEBD_KPEAPEAVArrayImpl@impl@23@@ZW4FunctionType@123@@Z@4HA 	 DATA
	?$TSS0@?4???$resolveFunction@P6APEAVNameListImpl@detail@data@matlab@@_K@Z@detail@data@matlab@@YAP6APEAVNameListImpl@123@_K@ZW4FunctionType@123@@Z@4HA 	 DATA
	?$TSS0@?4???$resolveFunction@P6AXPEAVArrayFactoryImpl@impl@data@matlab@@@Z@detail@data@matlab@@YAP6AXPEAVArrayFactoryImpl@impl@23@@ZW4FunctionType@123@@Z@4HA 	 DATA
	?$TSS0@?4???$resolveFunction@P6AXPEAVArrayImpl@impl@data@matlab@@@Z@detail@data@matlab@@YAP6AXPEAVArrayImpl@impl@23@@ZW4FunctionType@123@@Z@4HA 	 DATA
	?$TSS0@?4???$resolveFunction@P6AXPEAVNameListImpl@detail@data@matlab@@@Z@detail@data@matlab@@YAP6AXPEAVNameListImpl@123@@ZW4FunctionType@123@@Z@4HA 	 DATA
	?$TSS0@?4???$resolveFunction@P6AXPEAVNameListImpl@detail@data@matlab@@PEBD_K@Z@detail@data@matlab@@YAP6AXPEAVNameListImpl@123@PEBD_K@ZW4FunctionType@123@@Z@4HA 	 DATA
	?$TSS0@?4???$resolveFunction@P6AXPEAVReferenceImpl@detail@data@matlab@@@Z@detail@data@matlab@@YAP6AXPEAVReferenceImpl@123@@ZW4FunctionType@123@@Z@4HA 	 DATA
	?$TSS0@?4???$resolveFunction@P6AXPEAVReferenceImpl@detail@data@matlab@@PEAPEAVArrayImpl@impl@34@@Z@detail@data@matlab@@YAP6AXPEAVReferenceImpl@123@PEAPEAVArrayImpl@impl@23@@ZW4FunctionType@123@@Z@4HA 	 DATA
	?$TSS0@?4???$resolveFunction@P6A_NPEAVArrayImpl@impl@data@matlab@@_NPEAPEAV1234@@Z@detail@data@matlab@@YAP6A_NPEAVArrayImpl@impl@23@_NPEAPEAV4523@@ZW4FunctionType@123@@Z@4HA 	 DATA
	?$TSS1@?1???$castTo@V?$TypedArray@_J@data@matlab@@$00@detail@data@matlab@@YA?AV?$TypedArray@_J@23@V?$shared_ptr@VReferenceImpl@detail@data@matlab@@@std@@@Z@4HA 	 DATA
	?$TSS1@?1???A?$TypedArray@VStruct@data@matlab@@@data@matlab@@QEAA?AV?$ArrayElementTypedRef@VStruct@data@matlab@@$0A@@23@_K@Z@4HA 	 DATA
	?$TSS2@?5??createStructArray@ArrayFactory@data@matlab@@QEAA?AVStructArray@34@V?$vector@_KV?$allocator@_K@std@@@std@@V?$vector@V?$basic_string@DU?$char_traits@D@std@@V?$allocator@D@2@@std@@V?$allocator@V?$basic_string@DU?$char_traits@D@std@@V?$allocator@D@2@@std@@@2@@7@@Z@4HA 	 DATA
	?$TSS3@?1??createStructArray@ArrayFactory@data@matlab@@QEAA?AVStructArray@34@V?$vector@_KV?$allocator@_K@std@@@std@@V?$vector@V?$basic_string@DU?$char_traits@D@std@@V?$allocator@D@2@@std@@V?$allocator@V?$basic_string@DU?$char_traits@D@std@@V?$allocator@D@2@@std@@@2@@7@@Z@4HA 	 DATA
	??_R0?AU?$AddTwoIntsRequest_@V?$allocator@X@std@@@simple_msgs@@@8 	 DATA
	??_R0?AU?$AddTwoIntsResponse_@V?$allocator@X@std@@@simple_msgs@@@8 	 DATA
	??_R0?AU?$DefaultMessageCreator@U?$AddTwoIntsRequest_@V?$allocator@X@std@@@simple_msgs@@@ros@@@8 	 DATA
	??_R0?AU?$DefaultMessageCreator@U?$AddTwoIntsResponse_@V?$allocator@X@std@@@simple_msgs@@@ros@@@8 	 DATA
	??_R0?AU?$DefaultMessageCreator@U?$Num_@V?$allocator@X@std@@@simple_msgs@@@ros@@@8 	 DATA
	??_R0?AU?$Num_@V?$allocator@X@std@@@simple_msgs@@@8 	 DATA
	??_R0?AU?$checked_array_deleter@E@mwboost@@@8 	 DATA
	??_R0?AU?$wrapexcept@Vbad_function_call@mwboost@@@mwboost@@@8 	 DATA
	??_R0?AU?$wrapexcept@Vthread_resource_error@mwboost@@@mwboost@@@8 	 DATA
	??_R0?AUbad_alloc_@exception_detail@mwboost@@@8 	 DATA
	??_R0?AUbad_exception_@exception_detail@mwboost@@@8 	 DATA
	??_R0?AV<lambda_18bde30140702ba20a566c9dc393b8c0>@@@8 	 DATA
	??_R0?AV<lambda_2615407b98e1f3a14023b76f0dedc381>@@@8 	 DATA
	??_R0?AV<lambda_49bc69670bef5877f460780ec06c4b58>@@@8 	 DATA
	??_R0?AV<lambda_9f3a4d0362104a3bede0405fafec76e1>@@@8 	 DATA
	??_R0?AV<lambda_a4c5f97d4391fb4c09103a727c16defd>@@@8 	 DATA
	??_R0?AV?$AbstractMetaObject@V?$MATLABROSMsgInterface@U?$AddTwoIntsRequest_@V?$allocator@X@std@@@simple_msgs@@@@@impl@ros1_class_loader@@@8 	 DATA
	??_R0?AV?$AbstractMetaObject@V?$MATLABROSMsgInterface@U?$AddTwoIntsResponse_@V?$allocator@X@std@@@simple_msgs@@@@@impl@ros1_class_loader@@@8 	 DATA
	??_R0?AV?$AbstractMetaObject@V?$MATLABROSMsgInterface@U?$Num_@V?$allocator@X@std@@@simple_msgs@@@@@impl@ros1_class_loader@@@8 	 DATA
	??_R0?AV?$AbstractMetaObject@VROSMsgElementInterfaceFactory@@@impl@ros1_class_loader@@@8 	 DATA
	??_R0?AV?$ArrayException@VException@matlab@@$00@detail@data@matlab@@@8 	 DATA
	??_R0?AV?$ArrayException@VException@matlab@@$01@detail@data@matlab@@@8 	 DATA
	??_R0?AV?$ArrayException@VException@matlab@@$02@detail@data@matlab@@@8 	 DATA
	??_R0?AV?$ArrayException@VException@matlab@@$04@detail@data@matlab@@@8 	 DATA
	??_R0?AV?$ArrayException@VException@matlab@@$05@detail@data@matlab@@@8 	 DATA
	??_R0?AV?$ArrayException@VException@matlab@@$06@detail@data@matlab@@@8 	 DATA
	??_R0?AV?$ArrayException@VException@matlab@@$07@detail@data@matlab@@@8 	 DATA
	??_R0?AV?$ArrayException@VException@matlab@@$08@detail@data@matlab@@@8 	 DATA
	??_R0?AV?$ArrayException@VException@matlab@@$09@detail@data@matlab@@@8 	 DATA
	??_R0?AV?$ArrayException@VException@matlab@@$0BA@@detail@data@matlab@@@8 	 DATA
	??_R0?AV?$ArrayException@VException@matlab@@$0BC@@detail@data@matlab@@@8 	 DATA
	??_R0?AV?$ArrayException@VException@matlab@@$0BD@@detail@data@matlab@@@8 	 DATA
	??_R0?AV?$ArrayException@VException@matlab@@$0BE@@detail@data@matlab@@@8 	 DATA
	??_R0?AV?$ArrayException@VException@matlab@@$0BF@@detail@data@matlab@@@8 	 DATA
	??_R0?AV?$ArrayException@VException@matlab@@$0BG@@detail@data@matlab@@@8 	 DATA
	??_R0?AV?$ArrayException@VException@matlab@@$0BH@@detail@data@matlab@@@8 	 DATA
	??_R0?AV?$ArrayException@VException@matlab@@$0BI@@detail@data@matlab@@@8 	 DATA
	??_R0?AV?$ArrayException@VException@matlab@@$0BJ@@detail@data@matlab@@@8 	 DATA
	??_R0?AV?$ArrayException@VException@matlab@@$0BK@@detail@data@matlab@@@8 	 DATA
	??_R0?AV?$ArrayException@VException@matlab@@$0BL@@detail@data@matlab@@@8 	 DATA
	??_R0?AV?$ArrayException@VException@matlab@@$0BM@@detail@data@matlab@@@8 	 DATA
	??_R0?AV?$ArrayException@VException@matlab@@$0BN@@detail@data@matlab@@@8 	 DATA
	??_R0?AV?$ArrayException@VException@matlab@@$0N@@detail@data@matlab@@@8 	 DATA
	??_R0?AV?$ArrayException@VException@matlab@@$0O@@detail@data@matlab@@@8 	 DATA
	??_R0?AV?$ArrayException@VException@matlab@@$0P@@detail@data@matlab@@@8 	 DATA
	??_R0?AV?$MATLABROSMsgInterface@U?$AddTwoIntsRequest_@V?$allocator@X@std@@@simple_msgs@@@@@8 	 DATA
	??_R0?AV?$MATLABROSMsgInterface@U?$AddTwoIntsResponse_@V?$allocator@X@std@@@simple_msgs@@@@@8 	 DATA
	??_R0?AV?$MATLABROSMsgInterface@U?$Num_@V?$allocator@X@std@@@simple_msgs@@@@@8 	 DATA
	??_R0?AV?$MetaObject@Vsimple_msgs_AddTwoInts_service@@VROSMsgElementInterfaceFactory@@@impl@ros1_class_loader@@@8 	 DATA
	??_R0?AV?$MetaObject@Vsimple_msgs_Num_message@@VROSMsgElementInterfaceFactory@@@impl@ros1_class_loader@@@8 	 DATA
	??_R0?AV?$MetaObject@Vsimple_msgs_msg_AddTwoIntsRequest_common@@V?$MATLABROSMsgInterface@U?$AddTwoIntsRequest_@V?$allocator@X@std@@@simple_msgs@@@@@impl@ros1_class_loader@@@8 	 DATA
	??_R0?AV?$MetaObject@Vsimple_msgs_msg_AddTwoIntsResponse_common@@V?$MATLABROSMsgInterface@U?$AddTwoIntsResponse_@V?$allocator@X@std@@@simple_msgs@@@@@impl@ros1_class_loader@@@8 	 DATA
	??_R0?AV?$MetaObject@Vsimple_msgs_msg_Num_common@@V?$MATLABROSMsgInterface@U?$Num_@V?$allocator@X@std@@@simple_msgs@@@@@impl@ros1_class_loader@@@8 	 DATA
	??_R0?AV?$ROSBagWriterImpl@U?$AddTwoIntsRequest_@V?$allocator@X@std@@@simple_msgs@@Vsimple_msgs_msg_AddTwoIntsRequest_common@@@@@8 	 DATA
	??_R0?AV?$ROSBagWriterImpl@U?$AddTwoIntsResponse_@V?$allocator@X@std@@@simple_msgs@@Vsimple_msgs_msg_AddTwoIntsResponse_common@@@@@8 	 DATA
	??_R0?AV?$ROSBagWriterImpl@U?$Num_@V?$allocator@X@std@@@simple_msgs@@Vsimple_msgs_msg_Num_common@@@@@8 	 DATA
	??_R0?AV?$ROSPublisherImpl@U?$AddTwoIntsRequest_@V?$allocator@X@std@@@simple_msgs@@Vsimple_msgs_msg_AddTwoIntsRequest_common@@@@@8 	 DATA
	??_R0?AV?$ROSPublisherImpl@U?$AddTwoIntsResponse_@V?$allocator@X@std@@@simple_msgs@@Vsimple_msgs_msg_AddTwoIntsResponse_common@@@@@8 	 DATA
	??_R0?AV?$ROSPublisherImpl@U?$Num_@V?$allocator@X@std@@@simple_msgs@@Vsimple_msgs_msg_Num_common@@@@@8 	 DATA
	??_R0?AV?$ROSSubscriberImpl@U?$AddTwoIntsRequest_@V?$allocator@X@std@@@simple_msgs@@V?$shared_ptr@$$CBU?$AddTwoIntsRequest_@V?$allocator@X@std@@@simple_msgs@@@mwboost@@Vsimple_msgs_msg_AddTwoIntsRequest_common@@@@@8 	 DATA
	??_R0?AV?$ROSSubscriberImpl@U?$AddTwoIntsResponse_@V?$allocator@X@std@@@simple_msgs@@V?$shared_ptr@$$CBU?$AddTwoIntsResponse_@V?$allocator@X@std@@@simple_msgs@@@mwboost@@Vsimple_msgs_msg_AddTwoIntsResponse_common@@@@@8 	 DATA
	??_R0?AV?$ROSSubscriberImpl@U?$Num_@V?$allocator@X@std@@@simple_msgs@@V?$shared_ptr@$$CBU?$Num_@V?$allocator@X@std@@@simple_msgs@@@mwboost@@Vsimple_msgs_msg_Num_common@@@@@8 	 DATA
	??_R0?AV?$ROSSvcClientImpl@UAddTwoInts@simple_msgs@@U?$AddTwoIntsRequest_@V?$allocator@X@std@@@2@U?$AddTwoIntsResponse_@V?$allocator@X@std@@@2@Vsimple_msgs_msg_AddTwoIntsRequest_common@@Vsimple_msgs_msg_AddTwoIntsResponse_common@@@@@8 	 DATA
	??_R0?AV?$ROSSvcServerImpl@U?$AddTwoIntsRequest_@V?$allocator@X@std@@@simple_msgs@@U?$AddTwoIntsResponse_@V?$allocator@X@std@@@2@Vsimple_msgs_msg_AddTwoIntsRequest_common@@Vsimple_msgs_msg_AddTwoIntsResponse_common@@@@@8 	 DATA
	??_R0?AV?$ServiceCallbackHelperT@U?$ServiceSpec@U?$AddTwoIntsRequest_@V?$allocator@X@std@@@simple_msgs@@U?$AddTwoIntsResponse_@V?$allocator@X@std@@@2@@ros@@@ros@@@8 	 DATA
	??_R0?AV?$SubscriptionCallbackHelperT@AEBV?$shared_ptr@$$CBU?$AddTwoIntsRequest_@V?$allocator@X@std@@@simple_msgs@@@mwboost@@X@ros@@@8 	 DATA
	??_R0?AV?$SubscriptionCallbackHelperT@AEBV?$shared_ptr@$$CBU?$AddTwoIntsResponse_@V?$allocator@X@std@@@simple_msgs@@@mwboost@@X@ros@@@8 	 DATA
	??_R0?AV?$SubscriptionCallbackHelperT@AEBV?$shared_ptr@$$CBU?$Num_@V?$allocator@X@std@@@simple_msgs@@@mwboost@@X@ros@@@8 	 DATA
	??_R0?AV?$TypedArray@VStruct@data@matlab@@@data@matlab@@@8 	 DATA
	??_R0?AV?$TypedArray@_J@data@matlab@@@8 	 DATA
	??_R0?AV?$TypedArray@_S@data@matlab@@@8 	 DATA
	??_R0?AV?$_Ref_count_obj2@V?$ROSBagWriterImpl@U?$AddTwoIntsRequest_@V?$allocator@X@std@@@simple_msgs@@Vsimple_msgs_msg_AddTwoIntsRequest_common@@@@@std@@@8 	 DATA
	??_R0?AV?$_Ref_count_obj2@V?$ROSBagWriterImpl@U?$AddTwoIntsResponse_@V?$allocator@X@std@@@simple_msgs@@Vsimple_msgs_msg_AddTwoIntsResponse_common@@@@@std@@@8 	 DATA
	??_R0?AV?$_Ref_count_obj2@V?$ROSBagWriterImpl@U?$Num_@V?$allocator@X@std@@@simple_msgs@@Vsimple_msgs_msg_Num_common@@@@@std@@@8 	 DATA
	??_R0?AV?$_Ref_count_obj2@V?$ROSPublisherImpl@U?$AddTwoIntsRequest_@V?$allocator@X@std@@@simple_msgs@@Vsimple_msgs_msg_AddTwoIntsRequest_common@@@@@std@@@8 	 DATA
	??_R0?AV?$_Ref_count_obj2@V?$ROSPublisherImpl@U?$AddTwoIntsResponse_@V?$allocator@X@std@@@simple_msgs@@Vsimple_msgs_msg_AddTwoIntsResponse_common@@@@@std@@@8 	 DATA
	??_R0?AV?$_Ref_count_obj2@V?$ROSPublisherImpl@U?$Num_@V?$allocator@X@std@@@simple_msgs@@Vsimple_msgs_msg_Num_common@@@@@std@@@8 	 DATA
	??_R0?AV?$_Ref_count_obj2@V?$ROSSubscriberImpl@U?$AddTwoIntsRequest_@V?$allocator@X@std@@@simple_msgs@@V?$shared_ptr@$$CBU?$AddTwoIntsRequest_@V?$allocator@X@std@@@simple_msgs@@@mwboost@@Vsimple_msgs_msg_AddTwoIntsRequest_common@@@@@std@@@8 	 DATA
	??_R0?AV?$_Ref_count_obj2@V?$ROSSubscriberImpl@U?$AddTwoIntsResponse_@V?$allocator@X@std@@@simple_msgs@@V?$shared_ptr@$$CBU?$AddTwoIntsResponse_@V?$allocator@X@std@@@simple_msgs@@@mwboost@@Vsimple_msgs_msg_AddTwoIntsResponse_common@@@@@std@@@8 	 DATA
	??_R0?AV?$_Ref_count_obj2@V?$ROSSubscriberImpl@U?$Num_@V?$allocator@X@std@@@simple_msgs@@V?$shared_ptr@$$CBU?$Num_@V?$allocator@X@std@@@simple_msgs@@@mwboost@@Vsimple_msgs_msg_Num_common@@@@@std@@@8 	 DATA
	??_R0?AV?$_Ref_count_obj2@V?$ROSSvcClientImpl@UAddTwoInts@simple_msgs@@U?$AddTwoIntsRequest_@V?$allocator@X@std@@@2@U?$AddTwoIntsResponse_@V?$allocator@X@std@@@2@Vsimple_msgs_msg_AddTwoIntsRequest_common@@Vsimple_msgs_msg_AddTwoIntsResponse_common@@@@@std@@@8 	 DATA
	??_R0?AV?$_Ref_count_obj2@V?$ROSSvcServerImpl@U?$AddTwoIntsRequest_@V?$allocator@X@std@@@simple_msgs@@U?$AddTwoIntsResponse_@V?$allocator@X@std@@@2@Vsimple_msgs_msg_AddTwoIntsRequest_common@@Vsimple_msgs_msg_AddTwoIntsResponse_common@@@@@std@@@8 	 DATA
	??_R0?AV?$_Ref_count_obj2@VPublisher@ros@@@std@@@8 	 DATA
	??_R0?AV?$_Ref_count_obj2@VServiceClient@ros@@@std@@@8 	 DATA
	??_R0?AV?$_Ref_count_obj2@VServiceServer@ros@@@std@@@8 	 DATA
	??_R0?AV?$_Ref_count_obj2@VSubscriber@ros@@@std@@@8 	 DATA
	??_R0?AV?$_Ref_count_resource@PEAVArrayFactoryImpl@impl@data@matlab@@V<lambda_a4c5f97d4391fb4c09103a727c16defd>@@@std@@@8 	 DATA
	??_R0?AV?$_Ref_count_resource@PEAVArrayImpl@impl@data@matlab@@V<lambda_18bde30140702ba20a566c9dc393b8c0>@@@std@@@8 	 DATA
	??_R0?AV?$_Ref_count_resource@PEAVArrayImpl@impl@data@matlab@@V<lambda_49bc69670bef5877f460780ec06c4b58>@@@std@@@8 	 DATA
	??_R0?AV?$_Ref_count_resource@PEAVNameListImpl@detail@data@matlab@@V<lambda_9f3a4d0362104a3bede0405fafec76e1>@@@std@@@8 	 DATA
	??_R0?AV?$_Ref_count_resource@PEAVReferenceImpl@detail@data@matlab@@V<lambda_2615407b98e1f3a14023b76f0dedc381>@@@std@@@8 	 DATA
	??_R0?AV?$bind_t@VSerializedMessage@ros@@P6A?AV12@AEBU?$AddTwoIntsRequest_@V?$allocator@X@std@@@simple_msgs@@@ZV?$list1@V?$reference_wrapper@U?$AddTwoIntsRequest_@V?$allocator@X@std@@@simple_msgs@@@mwboost@@@_bi@mwboost@@@_bi@mwboost@@@8 	 DATA
	??_R0?AV?$bind_t@VSerializedMessage@ros@@P6A?AV12@AEBU?$AddTwoIntsResponse_@V?$allocator@X@std@@@simple_msgs@@@ZV?$list1@V?$reference_wrapper@U?$AddTwoIntsResponse_@V?$allocator@X@std@@@simple_msgs@@@mwboost@@@_bi@mwboost@@@_bi@mwboost@@@8 	 DATA
	??_R0?AV?$bind_t@VSerializedMessage@ros@@P6A?AV12@AEBU?$Num_@V?$allocator@X@std@@@simple_msgs@@@ZV?$list1@V?$reference_wrapper@U?$Num_@V?$allocator@X@std@@@simple_msgs@@@mwboost@@@_bi@mwboost@@@_bi@mwboost@@@8 	 DATA
	??_R0?AV?$bind_t@XV?$mf1@XV?$ROSSubscriberImpl@U?$AddTwoIntsRequest_@V?$allocator@X@std@@@simple_msgs@@V?$shared_ptr@$$CBU?$AddTwoIntsRequest_@V?$allocator@X@std@@@simple_msgs@@@mwboost@@Vsimple_msgs_msg_AddTwoIntsRequest_common@@@@AEBV?$shared_ptr@$$CBU?$AddTwoIntsRequest_@V?$allocator@X@std@@@simple_msgs@@@mwboost@@@_mfi@mwboost@@V?$list2@V?$value@PEAV?$ROSSubscriberImpl@U?$AddTwoIntsRequest_@V?$allocator@X@std@@@simple_msgs@@V?$shared_ptr@$$CBU?$AddTwoIntsRequest_@V?$allocator@X@std@@@simple_msgs@@@mwboost@@Vsimple_msgs_msg_AddTwoIntsRequest_common@@@@@_bi@mwboost@@U?$arg@$00@3@@_bi@3@@_bi@mwboost@@@8 	 DATA
	??_R0?AV?$bind_t@XV?$mf1@XV?$ROSSubscriberImpl@U?$AddTwoIntsResponse_@V?$allocator@X@std@@@simple_msgs@@V?$shared_ptr@$$CBU?$AddTwoIntsResponse_@V?$allocator@X@std@@@simple_msgs@@@mwboost@@Vsimple_msgs_msg_AddTwoIntsResponse_common@@@@AEBV?$shared_ptr@$$CBU?$AddTwoIntsResponse_@V?$allocator@X@std@@@simple_msgs@@@mwboost@@@_mfi@mwboost@@V?$list2@V?$value@PEAV?$ROSSubscriberImpl@U?$AddTwoIntsResponse_@V?$allocator@X@std@@@simple_msgs@@V?$shared_ptr@$$CBU?$AddTwoIntsResponse_@V?$allocator@X@std@@@simple_msgs@@@mwboost@@Vsimple_msgs_msg_AddTwoIntsResponse_common@@@@@_bi@mwboost@@U?$arg@$00@3@@_bi@3@@_bi@mwboost@@@8 	 DATA
	??_R0?AV?$bind_t@XV?$mf1@XV?$ROSSubscriberImpl@U?$Num_@V?$allocator@X@std@@@simple_msgs@@V?$shared_ptr@$$CBU?$Num_@V?$allocator@X@std@@@simple_msgs@@@mwboost@@Vsimple_msgs_msg_Num_common@@@@AEBV?$shared_ptr@$$CBU?$Num_@V?$allocator@X@std@@@simple_msgs@@@mwboost@@@_mfi@mwboost@@V?$list2@V?$value@PEAV?$ROSSubscriberImpl@U?$Num_@V?$allocator@X@std@@@simple_msgs@@V?$shared_ptr@$$CBU?$Num_@V?$allocator@X@std@@@simple_msgs@@@mwboost@@Vsimple_msgs_msg_Num_common@@@@@_bi@mwboost@@U?$arg@$00@3@@_bi@3@@_bi@mwboost@@@8 	 DATA
	??_R0?AV?$bind_t@_NV?$mf2@_NV?$ROSSvcServerImpl@U?$AddTwoIntsRequest_@V?$allocator@X@std@@@simple_msgs@@U?$AddTwoIntsResponse_@V?$allocator@X@std@@@2@Vsimple_msgs_msg_AddTwoIntsRequest_common@@Vsimple_msgs_msg_AddTwoIntsResponse_common@@@@AEAU?$AddTwoIntsRequest_@V?$allocator@X@std@@@simple_msgs@@AEAU?$AddTwoIntsResponse_@V?$allocator@X@std@@@3@@_mfi@mwboost@@V?$list3@V?$value@PEAV?$ROSSvcServerImpl@U?$AddTwoIntsRequest_@V?$allocator@X@std@@@simple_msgs@@U?$AddTwoIntsResponse_@V?$allocator@X@std@@@2@Vsimple_msgs_msg_AddTwoIntsRequest_common@@Vsimple_msgs_msg_AddTwoIntsResponse_common@@@@@_bi@mwboost@@U?$arg@$00@3@U?$arg@$01@3@@_bi@3@@_bi@mwboost@@@8 	 DATA
	??_R0?AV?$clone_impl@Ubad_alloc_@exception_detail@mwboost@@@exception_detail@mwboost@@@8 	 DATA
	??_R0?AV?$clone_impl@Ubad_exception_@exception_detail@mwboost@@@exception_detail@mwboost@@@8 	 DATA
	??_R0?AV?$function@$$A6AXAEBV?$shared_ptr@$$CBU?$AddTwoIntsRequest_@V?$allocator@X@std@@@simple_msgs@@@mwboost@@@Z@mwboost@@@8 	 DATA
	??_R0?AV?$function@$$A6AXAEBV?$shared_ptr@$$CBU?$AddTwoIntsResponse_@V?$allocator@X@std@@@simple_msgs@@@mwboost@@@Z@mwboost@@@8 	 DATA
	??_R0?AV?$function@$$A6AXAEBV?$shared_ptr@$$CBU?$Num_@V?$allocator@X@std@@@simple_msgs@@@mwboost@@@Z@mwboost@@@8 	 DATA
	??_R0?AV?$sp_counted_impl_p@V?$clone_impl@Ubad_alloc_@exception_detail@mwboost@@@exception_detail@mwboost@@@detail@mwboost@@@8 	 DATA
	??_R0?AV?$sp_counted_impl_p@V?$clone_impl@Ubad_exception_@exception_detail@mwboost@@@exception_detail@mwboost@@@detail@mwboost@@@8 	 DATA
	??_R0?AV?$sp_counted_impl_pd@PEAEU?$checked_array_deleter@E@mwboost@@@detail@mwboost@@@8 	 DATA
	??_R0?AV?$sp_counted_impl_pd@PEAU?$AddTwoIntsRequest_@V?$allocator@X@std@@@simple_msgs@@V?$sp_ms_deleter@U?$AddTwoIntsRequest_@V?$allocator@X@std@@@simple_msgs@@@detail@mwboost@@@detail@mwboost@@@8 	 DATA
	??_R0?AV?$sp_counted_impl_pd@PEAU?$AddTwoIntsResponse_@V?$allocator@X@std@@@simple_msgs@@V?$sp_ms_deleter@U?$AddTwoIntsResponse_@V?$allocator@X@std@@@simple_msgs@@@detail@mwboost@@@detail@mwboost@@@8 	 DATA
	??_R0?AV?$sp_counted_impl_pd@PEAU?$Num_@V?$allocator@X@std@@@simple_msgs@@V?$sp_ms_deleter@U?$Num_@V?$allocator@X@std@@@simple_msgs@@@detail@mwboost@@@detail@mwboost@@@8 	 DATA
	??_R0?AV?$sp_counted_impl_pd@PEAV?$ServiceCallbackHelperT@U?$ServiceSpec@U?$AddTwoIntsRequest_@V?$allocator@X@std@@@simple_msgs@@U?$AddTwoIntsResponse_@V?$allocator@X@std@@@2@@ros@@@ros@@V?$sp_ms_deleter@V?$ServiceCallbackHelperT@U?$ServiceSpec@U?$AddTwoIntsRequest_@V?$allocator@X@std@@@simple_msgs@@U?$AddTwoIntsResponse_@V?$allocator@X@std@@@2@@ros@@@ros@@@detail@mwboost@@@detail@mwboost@@@8 	 DATA
	??_R0?AV?$sp_counted_impl_pd@PEAV?$SubscriptionCallbackHelperT@AEBV?$shared_ptr@$$CBU?$AddTwoIntsRequest_@V?$allocator@X@std@@@simple_msgs@@@mwboost@@X@ros@@V?$sp_ms_deleter@V?$SubscriptionCallbackHelperT@AEBV?$shared_ptr@$$CBU?$AddTwoIntsRequest_@V?$allocator@X@std@@@simple_msgs@@@mwboost@@X@ros@@@detail@mwboost@@@detail@mwboost@@@8 	 DATA
	??_R0?AV?$sp_counted_impl_pd@PEAV?$SubscriptionCallbackHelperT@AEBV?$shared_ptr@$$CBU?$AddTwoIntsResponse_@V?$allocator@X@std@@@simple_msgs@@@mwboost@@X@ros@@V?$sp_ms_deleter@V?$SubscriptionCallbackHelperT@AEBV?$shared_ptr@$$CBU?$AddTwoIntsResponse_@V?$allocator@X@std@@@simple_msgs@@@mwboost@@X@ros@@@detail@mwboost@@@detail@mwboost@@@8 	 DATA
	??_R0?AV?$sp_counted_impl_pd@PEAV?$SubscriptionCallbackHelperT@AEBV?$shared_ptr@$$CBU?$Num_@V?$allocator@X@std@@@simple_msgs@@@mwboost@@X@ros@@V?$sp_ms_deleter@V?$SubscriptionCallbackHelperT@AEBV?$shared_ptr@$$CBU?$Num_@V?$allocator@X@std@@@simple_msgs@@@mwboost@@X@ros@@@detail@mwboost@@@detail@mwboost@@@8 	 DATA
	??_R0?AV?$sp_counted_impl_pd@PEAV?$map@V?$basic_string@DU?$char_traits@D@std@@V?$allocator@D@2@@std@@V12@U?$less@V?$basic_string@DU?$char_traits@D@std@@V?$allocator@D@2@@std@@@2@V?$allocator@U?$pair@$$CBV?$basic_string@DU?$char_traits@D@std@@V?$allocator@D@2@@std@@V12@@std@@@2@@std@@V?$sp_ms_deleter@V?$map@V?$basic_string@DU?$char_traits@D@std@@V?$allocator@D@2@@std@@V12@U?$less@V?$basic_string@DU?$char_traits@D@std@@V?$allocator@D@2@@std@@@2@V?$allocator@U?$pair@$$CBV?$basic_string@DU?$char_traits@D@std@@V?$allocator@D@2@@std@@V12@@std@@@2@@std@@@detail@mwboost@@@detail@mwboost@@@8 	 DATA
	??_R0?AV?$sp_ms_deleter@U?$AddTwoIntsRequest_@V?$allocator@X@std@@@simple_msgs@@@detail@mwboost@@@8 	 DATA
	??_R0?AV?$sp_ms_deleter@U?$AddTwoIntsResponse_@V?$allocator@X@std@@@simple_msgs@@@detail@mwboost@@@8 	 DATA
	??_R0?AV?$sp_ms_deleter@U?$Num_@V?$allocator@X@std@@@simple_msgs@@@detail@mwboost@@@8 	 DATA
	??_R0?AV?$sp_ms_deleter@V?$ServiceCallbackHelperT@U?$ServiceSpec@U?$AddTwoIntsRequest_@V?$allocator@X@std@@@simple_msgs@@U?$AddTwoIntsResponse_@V?$allocator@X@std@@@2@@ros@@@ros@@@detail@mwboost@@@8 	 DATA
	??_R0?AV?$sp_ms_deleter@V?$SubscriptionCallbackHelperT@AEBV?$shared_ptr@$$CBU?$AddTwoIntsRequest_@V?$allocator@X@std@@@simple_msgs@@@mwboost@@X@ros@@@detail@mwboost@@@8 	 DATA
	??_R0?AV?$sp_ms_deleter@V?$SubscriptionCallbackHelperT@AEBV?$shared_ptr@$$CBU?$AddTwoIntsResponse_@V?$allocator@X@std@@@simple_msgs@@@mwboost@@X@ros@@@detail@mwboost@@@8 	 DATA
	??_R0?AV?$sp_ms_deleter@V?$SubscriptionCallbackHelperT@AEBV?$shared_ptr@$$CBU?$Num_@V?$allocator@X@std@@@simple_msgs@@@mwboost@@X@ros@@@detail@mwboost@@@8 	 DATA
	??_R0?AV?$sp_ms_deleter@V?$map@V?$basic_string@DU?$char_traits@D@std@@V?$allocator@D@2@@std@@V12@U?$less@V?$basic_string@DU?$char_traits@D@std@@V?$allocator@D@2@@std@@@2@V?$allocator@U?$pair@$$CBV?$basic_string@DU?$char_traits@D@std@@V?$allocator@D@2@@std@@V12@@std@@@2@@std@@@detail@mwboost@@@8 	 DATA
	??_R0?AVAbstractMetaObjectBase@impl@ros1_class_loader@@@8 	 DATA
	??_R0?AVArray@data@matlab@@@8 	 DATA
	??_R0?AVBagException@rosbag@@@8 	 DATA
	??_R0?AVCharArray@data@matlab@@@8 	 DATA
	??_R0?AVException@matlab@@@8 	 DATA
	??_R0?AVException@ros@@@8 	 DATA
	??_R0?AVMATLABPublisherInterface@@@8 	 DATA
	??_R0?AVMATLABROSMsgInterfaceBase@@@8 	 DATA
	??_R0?AVMATLABRosbagWriterInterface@@@8 	 DATA
	??_R0?AVMATLABSubscriberInterface@@@8 	 DATA
	??_R0?AVMATLABSvcClientInterface@@@8 	 DATA
	??_R0?AVMATLABSvcServerInterface@@@8 	 DATA
	??_R0?AVROSMsgElementInterfaceFactory@@@8 	 DATA
	??_R0?AVServiceCallbackHelper@ros@@@8 	 DATA
	??_R0?AVStructArray@data@matlab@@@8 	 DATA
	??_R0?AVSubscriptionCallbackHelper@ros@@@8 	 DATA
	??_R0?AV_Ref_count_base@std@@@8 	 DATA
	??_R0?AVbad_alloc@std@@@8 	 DATA
	??_R0?AVbad_array_new_length@std@@@8 	 DATA
	??_R0?AVbad_exception@std@@@8 	 DATA
	??_R0?AVbad_function_call@mwboost@@@8 	 DATA
	??_R0?AVclone_base@exception_detail@mwboost@@@8 	 DATA
	??_R0?AVerror_category@system@mwboost@@@8 	 DATA
	??_R0?AVexception@mwboost@@@8 	 DATA
	??_R0?AVexception@std@@@8 	 DATA
	??_R0?AVgeneric_error_category@detail@system@mwboost@@@8 	 DATA
	??_R0?AVinvalid_argument@std@@@8 	 DATA
	??_R0?AVlogic_error@std@@@8 	 DATA
	??_R0?AVruntime_error@std@@@8 	 DATA
	??_R0?AVsimple_msgs_AddTwoInts_service@@@8 	 DATA
	??_R0?AVsimple_msgs_Num_message@@@8 	 DATA
	??_R0?AVsimple_msgs_msg_AddTwoIntsRequest_common@@@8 	 DATA
	??_R0?AVsimple_msgs_msg_AddTwoIntsResponse_common@@@8 	 DATA
	??_R0?AVsimple_msgs_msg_Num_common@@@8 	 DATA
	??_R0?AVsp_counted_base@detail@mwboost@@@8 	 DATA
	??_R0?AVsystem_error@system@mwboost@@@8 	 DATA
	??_R0?AVthread_exception@mwboost@@@8 	 DATA
	??_R0?AVthread_resource_error@mwboost@@@8 	 DATA
	??_R0P6A?AV?$shared_ptr@U?$AddTwoIntsRequest_@V?$allocator@X@std@@@simple_msgs@@@mwboost@@XZ@8 	 DATA
	??_R0P6A?AV?$shared_ptr@U?$AddTwoIntsResponse_@V?$allocator@X@std@@@simple_msgs@@@mwboost@@XZ@8 	 DATA
	?__rosconsole_define_location__loc@?6???$init@U?$AddTwoIntsRequest_@V?$allocator@X@std@@@simple_msgs@@U?$AddTwoIntsResponse_@V?$allocator@X@std@@@2@@AdvertiseServiceOptions@ros@@QEAAXAEBV?$basic_string@DU?$char_traits@D@std@@V?$allocator@D@2@@std@@AEBV?$function@$$A6A_NAEAU?$AddTwoIntsRequest_@V?$allocator@X@std@@@simple_msgs@@AEAU?$AddTwoIntsResponse_@V?$allocator@X@std@@@2@@Z@mwboost@@@Z@4ULogLocation@console@2@A 	 DATA
	?__rosconsole_define_location__loc@?6??deserialize@?$SubscriptionCallbackHelperT@AEBV?$shared_ptr@$$CBU?$AddTwoIntsRequest_@V?$allocator@X@std@@@simple_msgs@@@mwboost@@X@ros@@UEAA?AV?$shared_ptr@$$CBX@mwboost@@AEBUSubscriptionCallbackHelperDeserializeParams@3@@Z@4ULogLocation@console@3@A 	 DATA
	?__rosconsole_define_location__loc@?6??deserialize@?$SubscriptionCallbackHelperT@AEBV?$shared_ptr@$$CBU?$AddTwoIntsResponse_@V?$allocator@X@std@@@simple_msgs@@@mwboost@@X@ros@@UEAA?AV?$shared_ptr@$$CBX@mwboost@@AEBUSubscriptionCallbackHelperDeserializeParams@3@@Z@4ULogLocation@console@3@A 	 DATA
	?__rosconsole_define_location__loc@?6??deserialize@?$SubscriptionCallbackHelperT@AEBV?$shared_ptr@$$CBU?$Num_@V?$allocator@X@std@@@simple_msgs@@@mwboost@@X@ros@@UEAA?AV?$shared_ptr@$$CBX@mwboost@@AEBUSubscriptionCallbackHelperDeserializeParams@3@@Z@4ULogLocation@console@3@A 	 DATA
	?__rosconsole_define_location__loc@?N@???$publish@U?$AddTwoIntsRequest_@V?$allocator@X@std@@@simple_msgs@@@Publisher@ros@@QEBAXAEBV?$shared_ptr@U?$AddTwoIntsRequest_@V?$allocator@X@std@@@simple_msgs@@@mwboost@@@Z@4ULogLocation@console@2@A 	 DATA
	?__rosconsole_define_location__loc@?N@???$publish@U?$AddTwoIntsResponse_@V?$allocator@X@std@@@simple_msgs@@@Publisher@ros@@QEBAXAEBV?$shared_ptr@U?$AddTwoIntsResponse_@V?$allocator@X@std@@@simple_msgs@@@mwboost@@@Z@4ULogLocation@console@2@A 	 DATA
	?__rosconsole_define_location__loc@?N@???$publish@U?$Num_@V?$allocator@X@std@@@simple_msgs@@@Publisher@ros@@QEBAXAEBV?$shared_ptr@U?$Num_@V?$allocator@X@std@@@simple_msgs@@@mwboost@@@Z@4ULogLocation@console@2@A 	 DATA
	?destroyFcn@?1???R<lambda_9f3a4d0362104a3bede0405fafec76e1>@@QEBA@PEAVNameListImpl@detail@data@matlab@@@Z@4Q6AX0@ZEA 	 DATA
	?destroyFcn@?1???R<lambda_a4c5f97d4391fb4c09103a727c16defd>@@QEBA@PEAVArrayFactoryImpl@impl@data@matlab@@@Z@4Q6AX0@ZEA 	 DATA
	?e@?$exception_ptr_static_exception_object@Ubad_alloc_@exception_detail@mwboost@@@exception_detail@mwboost@@2Vexception_ptr@3@B 	 DATA
	?e@?$exception_ptr_static_exception_object@Ubad_exception_@exception_detail@mwboost@@@exception_detail@mwboost@@2Vexception_ptr@3@B 	 DATA
	?ep@?1???$get_static_exception_object@Ubad_alloc_@exception_detail@mwboost@@@exception_detail@mwboost@@YA?AVexception_ptr@2@XZ@4V32@A 	 DATA
	?ep@?1???$get_static_exception_object@Ubad_exception_@exception_detail@mwboost@@@exception_detail@mwboost@@YA?AVexception_ptr@2@XZ@4V32@A 	 DATA
	?fcn2@?1???$castTo@V?$TypedArray@_J@data@matlab@@$00@detail@data@matlab@@YA?AV?$TypedArray@_J@23@V?$shared_ptr@VReferenceImpl@detail@data@matlab@@@std@@@Z@4Q6AHPEAVReferenceImpl@123@H_N@ZEA 	 DATA
	?fcn2@?1???R<lambda_18bde30140702ba20a566c9dc393b8c0>@@QEBA@PEAVArrayImpl@impl@data@matlab@@@Z@4Q6AX0@ZEA 	 DATA
	?fcn2@?1???R<lambda_2615407b98e1f3a14023b76f0dedc381>@@QEBA@PEAVReferenceImpl@detail@data@matlab@@@Z@4Q6AX0@ZEA 	 DATA
	?fcn2@?1???R<lambda_49bc69670bef5877f460780ec06c4b58>@@QEBA@PEAVArrayImpl@impl@data@matlab@@@Z@4Q6AX0@ZEA 	 DATA
	?fcn2@?1??createStructArray@ArrayFactory@data@matlab@@QEAA?AVStructArray@34@V?$vector@_KV?$allocator@_K@std@@@std@@V?$vector@V?$basic_string@DU?$char_traits@D@std@@V?$allocator@D@2@@std@@V?$allocator@V?$basic_string@DU?$char_traits@D@std@@V?$allocator@D@2@@std@@@2@@7@@Z@4Q6AHPEAVArrayFactoryImpl@impl@34@PEA_K_KPEAVNameListImpl@detail@34@PEAPEAVArrayImpl@impl@34@@ZEA 	 DATA
	?fcn3@?1???A?$TypedArray@VStruct@data@matlab@@@data@matlab@@QEAA?AV?$ArrayElementTypedRef@VStruct@data@matlab@@$0A@@23@_K@Z@4Q6AHPEAVArrayImpl@impl@23@0PEAPEAVReferenceImpl@detail@23@@ZEA 	 DATA
	?fcn3@?1??createStructArray@ArrayFactory@data@matlab@@QEAA?AVStructArray@34@V?$vector@_KV?$allocator@_K@std@@@std@@V?$vector@V?$basic_string@DU?$char_traits@D@std@@V?$allocator@D@2@@std@@V?$allocator@V?$basic_string@DU?$char_traits@D@std@@V?$allocator@D@2@@std@@@2@@7@@Z@4Q6APEAVNameListImpl@detail@34@_K@ZEA 	 DATA
	?fcn@?1???$castTo@V?$TypedArray@_J@data@matlab@@$00@detail@data@matlab@@YA?AV?$TypedArray@_J@23@V?$shared_ptr@VReferenceImpl@detail@data@matlab@@@std@@@Z@4Q6AXPEAVReferenceImpl@123@PEAPEAVArrayImpl@impl@23@@ZEA 	 DATA
	?fcn@?1???$createScalar@_J@ArrayFactory@data@matlab@@QEAA?AV?$TypedArray@_J@23@_J@Z@4Q6AHPEAVArrayFactoryImpl@impl@23@HPEBXPEAPEAVArrayImpl@623@@ZEA 	 DATA
	?fcn@?1???$getElement@_J@detail@data@matlab@@YAAEA_JV?$shared_ptr@VReferenceImpl@detail@data@matlab@@@std@@@Z@4Q6AHPEAVReferenceImpl@123@PEAPEAX@ZEA 	 DATA
	?fcn@?1???$setElement@VArray@data@matlab@@@detail@data@matlab@@YAXPEAVReferenceImpl@123@VArray@23@H@Z@4Q6AH0PEAVArrayImpl@impl@23@@ZEA 	 DATA
	?fcn@?1???0?$TypedArray@_J@data@matlab@@QEAA@$$QEAVArray@23@@Z@4Q6AHHHPEA_N@ZEA 	 DATA
	?fcn@?1???0ArrayFactory@data@matlab@@QEAA@XZ@4Q6AHPEAPEAVArrayFactoryImpl@impl@23@@ZEA 	 DATA
	?fcn@?1???A?$ArrayElementTypedRef@VStruct@data@matlab@@$00@data@matlab@@QEAA?AV?$ArrayElementTypedRef@VArray@data@matlab@@$00@23@V?$basic_string@DU?$char_traits@D@std@@V?$allocator@D@2@@std@@@Z@4Q6AHPEAVReferenceImpl@detail@23@PEBD_K@ZEA 	 DATA
	?fcn@?1???A?$ArrayElementTypedRef@VStruct@data@matlab@@$0A@@data@matlab@@QEAA?AV?$ArrayElementTypedRef@VArray@data@matlab@@$0A@@23@V?$basic_string@DU?$char_traits@D@std@@V?$allocator@D@2@@std@@@Z@4Q6AHPEAVReferenceImpl@detail@23@PEBD_K@ZEA 	 DATA
	?fcn@?1???A?$TypedArray@VStruct@data@matlab@@@data@matlab@@QEAA?AV?$ArrayElementTypedRef@VStruct@data@matlab@@$0A@@23@_K@Z@4Q6A_NPEAVArrayImpl@impl@23@_NPEAPEAV5623@@ZEA 	 DATA
	?fcn@?1???A?$TypedArray@VStruct@data@matlab@@@data@matlab@@QEBA?AV?$ArrayElementTypedRef@VStruct@data@matlab@@$00@23@_K@Z@4Q6AHPEAVArrayImpl@impl@23@0PEAPEAVReferenceImpl@detail@23@@ZEA 	 DATA
	?fcn@?1???A?$TypedArray@_J@data@matlab@@QEBA?AV?$ArrayElementTypedRef@_J$00@23@_K@Z@4Q6AHPEAVArrayImpl@impl@23@0PEAPEAVReferenceImpl@detail@23@@ZEA 	 DATA
	?fcn@?1???AStruct@data@matlab@@QEBA?AVArray@23@V?$basic_string@DU?$char_traits@D@std@@V?$allocator@D@2@@std@@@Z@4Q6AHPEAVReferenceImpl@detail@23@PEBD_KPEAPEAVArrayImpl@impl@23@@ZEA 	 DATA
	?fcn@?1??createCharArray@ArrayFactory@data@matlab@@QEAA?AVCharArray@34@AEBV?$basic_string@DU?$char_traits@D@std@@V?$allocator@D@2@@std@@@Z@4Q6AHPEAVArrayFactoryImpl@impl@34@PEBD_KPEAPEAVArrayImpl@934@@ZEA 	 DATA
	?fcn@?1??getType@Array@data@matlab@@QEBA?AW4ArrayType@34@XZ@4Q6AHPEAVArrayImpl@impl@34@PEAH@ZEA 	 DATA
	?fcn@?5??createStructArray@ArrayFactory@data@matlab@@QEAA?AVStructArray@34@V?$vector@_KV?$allocator@_K@std@@@std@@V?$vector@V?$basic_string@DU?$char_traits@D@std@@V?$allocator@D@2@@std@@V?$allocator@V?$basic_string@DU?$char_traits@D@std@@V?$allocator@D@2@@std@@@2@@7@@Z@4Q6AXPEAVNameListImpl@detail@34@PEBD_K@ZEA 	 DATA
	?hit@?N@???$publish@U?$AddTwoIntsRequest_@V?$allocator@X@std@@@simple_msgs@@@Publisher@ros@@QEBAXAEBV?$shared_ptr@U?$AddTwoIntsRequest_@V?$allocator@X@std@@@simple_msgs@@@mwboost@@@Z@4_NA 	 DATA
	?hit@?N@???$publish@U?$AddTwoIntsResponse_@V?$allocator@X@std@@@simple_msgs@@@Publisher@ros@@QEBAXAEBV?$shared_ptr@U?$AddTwoIntsResponse_@V?$allocator@X@std@@@simple_msgs@@@mwboost@@@Z@4_NA 	 DATA
	?hit@?N@???$publish@U?$Num_@V?$allocator@X@std@@@simple_msgs@@@Publisher@ros@@QEBAXAEBV?$shared_ptr@U?$Num_@V?$allocator@X@std@@@simple_msgs@@@mwboost@@@Z@4_NA 	 DATA
	?minRelease@?4???$resolveFunction@P6AHHHPEA_N@Z@detail@data@matlab@@YAP6AHHHPEA_N@ZW4FunctionType@123@@Z@4V?$vector@U?$pair@W4FunctionType@detail@data@matlab@@V?$basic_string@DU?$char_traits@D@std@@V?$allocator@D@2@@std@@@std@@V?$allocator@U?$pair@W4FunctionType@detail@data@matlab@@V?$basic_string@DU?$char_traits@D@std@@V?$allocator@D@2@@std@@@std@@@2@@std@@B 	 DATA
	?minRelease@?4???$resolveFunction@P6AHPEAPEAVArrayFactoryImpl@impl@data@matlab@@@Z@detail@data@matlab@@YAP6AHPEAPEAVArrayFactoryImpl@impl@23@@ZW4FunctionType@123@@Z@4V?$vector@U?$pair@W4FunctionType@detail@data@matlab@@V?$basic_string@DU?$char_traits@D@std@@V?$allocator@D@2@@std@@@std@@V?$allocator@U?$pair@W4FunctionType@detail@data@matlab@@V?$basic_string@DU?$char_traits@D@std@@V?$allocator@D@2@@std@@@std@@@2@@std@@B 	 DATA
	?minRelease@?4???$resolveFunction@P6AHPEAVArrayFactoryImpl@impl@data@matlab@@HPEBXPEAPEAVArrayImpl@234@@Z@detail@data@matlab@@YAP6AHPEAVArrayFactoryImpl@impl@23@HPEBXPEAPEAVArrayImpl@523@@ZW4FunctionType@123@@Z@4V?$vector@U?$pair@W4FunctionType@detail@data@matlab@@V?$basic_string@DU?$char_traits@D@std@@V?$allocator@D@2@@std@@@std@@V?$allocator@U?$pair@W4FunctionType@detail@data@matlab@@V?$basic_string@DU?$char_traits@D@std@@V?$allocator@D@2@@std@@@std@@@2@@std@@B 	 DATA
	?minRelease@?4???$resolveFunction@P6AHPEAVArrayFactoryImpl@impl@data@matlab@@PEA_K_KPEAVNameListImpl@detail@34@PEAPEAVArrayImpl@234@@Z@detail@data@matlab@@YAP6AHPEAVArrayFactoryImpl@impl@23@PEA_K_KPEAVNameListImpl@123@PEAPEAVArrayImpl@523@@ZW4FunctionType@123@@Z@4V?$vector@U?$pair@W4FunctionType@detail@data@matlab@@V?$basic_string@DU?$char_traits@D@std@@V?$allocator@D@2@@std@@@std@@V?$allocator@U?$pair@W4FunctionType@detail@data@matlab@@V?$basic_string@DU?$char_traits@D@std@@V?$allocator@D@2@@std@@@std@@@2@@std@@B 	 DATA
	?minRelease@?4???$resolveFunction@P6AHPEAVArrayFactoryImpl@impl@data@matlab@@PEBD_KPEAPEAVArrayImpl@234@@Z@detail@data@matlab@@YAP6AHPEAVArrayFactoryImpl@impl@23@PEBD_KPEAPEAVArrayImpl@523@@ZW4FunctionType@123@@Z@4V?$vector@U?$pair@W4FunctionType@detail@data@matlab@@V?$basic_string@DU?$char_traits@D@std@@V?$allocator@D@2@@std@@@std@@V?$allocator@U?$pair@W4FunctionType@detail@data@matlab@@V?$basic_string@DU?$char_traits@D@std@@V?$allocator@D@2@@std@@@std@@@2@@std@@B 	 DATA
	?minRelease@?4???$resolveFunction@P6AHPEAVArrayImpl@impl@data@matlab@@PEAH@Z@detail@data@matlab@@YAP6AHPEAVArrayImpl@impl@23@PEAH@ZW4FunctionType@123@@Z@4V?$vector@U?$pair@W4FunctionType@detail@data@matlab@@V?$basic_string@DU?$char_traits@D@std@@V?$allocator@D@2@@std@@@std@@V?$allocator@U?$pair@W4FunctionType@detail@data@matlab@@V?$basic_string@DU?$char_traits@D@std@@V?$allocator@D@2@@std@@@std@@@2@@std@@B 	 DATA
	?minRelease@?4???$resolveFunction@P6AHPEAVArrayImpl@impl@data@matlab@@_KPEAPEAVReferenceImpl@detail@34@@Z@detail@data@matlab@@YAP6AHPEAVArrayImpl@impl@23@_KPEAPEAVReferenceImpl@123@@ZW4FunctionType@123@@Z@4V?$vector@U?$pair@W4FunctionType@detail@data@matlab@@V?$basic_string@DU?$char_traits@D@std@@V?$allocator@D@2@@std@@@std@@V?$allocator@U?$pair@W4FunctionType@detail@data@matlab@@V?$basic_string@DU?$char_traits@D@std@@V?$allocator@D@2@@std@@@std@@@2@@std@@B 	 DATA
	?minRelease@?4???$resolveFunction@P6AHPEAVReferenceImpl@detail@data@matlab@@H_N@Z@detail@data@matlab@@YAP6AHPEAVReferenceImpl@123@H_N@ZW4FunctionType@123@@Z@4V?$vector@U?$pair@W4FunctionType@detail@data@matlab@@V?$basic_string@DU?$char_traits@D@std@@V?$allocator@D@2@@std@@@std@@V?$allocator@U?$pair@W4FunctionType@detail@data@matlab@@V?$basic_string@DU?$char_traits@D@std@@V?$allocator@D@2@@std@@@std@@@2@@std@@B 	 DATA
	?minRelease@?4???$resolveFunction@P6AHPEAVReferenceImpl@detail@data@matlab@@PEAPEAX@Z@detail@data@matlab@@YAP6AHPEAVReferenceImpl@123@PEAPEAX@ZW4FunctionType@123@@Z@4V?$vector@U?$pair@W4FunctionType@detail@data@matlab@@V?$basic_string@DU?$char_traits@D@std@@V?$allocator@D@2@@std@@@std@@V?$allocator@U?$pair@W4FunctionType@detail@data@matlab@@V?$basic_string@DU?$char_traits@D@std@@V?$allocator@D@2@@std@@@std@@@2@@std@@B 	 DATA
	?minRelease@?4???$resolveFunction@P6AHPEAVReferenceImpl@detail@data@matlab@@PEAVArrayImpl@impl@34@@Z@detail@data@matlab@@YAP6AHPEAVReferenceImpl@123@PEAVArrayImpl@impl@23@@ZW4FunctionType@123@@Z@4V?$vector@U?$pair@W4FunctionType@detail@data@matlab@@V?$basic_string@DU?$char_traits@D@std@@V?$allocator@D@2@@std@@@std@@V?$allocator@U?$pair@W4FunctionType@detail@data@matlab@@V?$basic_string@DU?$char_traits@D@std@@V?$allocator@D@2@@std@@@std@@@2@@std@@B 	 DATA
	?minRelease@?4???$resolveFunction@P6AHPEAVReferenceImpl@detail@data@matlab@@PEBD_K@Z@detail@data@matlab@@YAP6AHPEAVReferenceImpl@123@PEBD_K@ZW4FunctionType@123@@Z@4V?$vector@U?$pair@W4FunctionType@detail@data@matlab@@V?$basic_string@DU?$char_traits@D@std@@V?$allocator@D@2@@std@@@std@@V?$allocator@U?$pair@W4FunctionType@detail@data@matlab@@V?$basic_string@DU?$char_traits@D@std@@V?$allocator@D@2@@std@@@std@@@2@@std@@B 	 DATA
	?minRelease@?4???$resolveFunction@P6AHPEAVReferenceImpl@detail@data@matlab@@PEBD_KPEAPEAVArrayImpl@impl@34@@Z@detail@data@matlab@@YAP6AHPEAVReferenceImpl@123@PEBD_KPEAPEAVArrayImpl@impl@23@@ZW4FunctionType@123@@Z@4V?$vector@U?$pair@W4FunctionType@detail@data@matlab@@V?$basic_string@DU?$char_traits@D@std@@V?$allocator@D@2@@std@@@std@@V?$allocator@U?$pair@W4FunctionType@detail@data@matlab@@V?$basic_string@DU?$char_traits@D@std@@V?$allocator@D@2@@std@@@std@@@2@@std@@B 	 DATA
	?minRelease@?4???$resolveFunction@P6APEAVNameListImpl@detail@data@matlab@@_K@Z@detail@data@matlab@@YAP6APEAVNameListImpl@123@_K@ZW4FunctionType@123@@Z@4V?$vector@U?$pair@W4FunctionType@detail@data@matlab@@V?$basic_string@DU?$char_traits@D@std@@V?$allocator@D@2@@std@@@std@@V?$allocator@U?$pair@W4FunctionType@detail@data@matlab@@V?$basic_string@DU?$char_traits@D@std@@V?$allocator@D@2@@std@@@std@@@2@@std@@B 	 DATA
	?minRelease@?4???$resolveFunction@P6AXPEAVArrayFactoryImpl@impl@data@matlab@@@Z@detail@data@matlab@@YAP6AXPEAVArrayFactoryImpl@impl@23@@ZW4FunctionType@123@@Z@4V?$vector@U?$pair@W4FunctionType@detail@data@matlab@@V?$basic_string@DU?$char_traits@D@std@@V?$allocator@D@2@@std@@@std@@V?$allocator@U?$pair@W4FunctionType@detail@data@matlab@@V?$basic_string@DU?$char_traits@D@std@@V?$allocator@D@2@@std@@@std@@@2@@std@@B 	 DATA
	?minRelease@?4???$resolveFunction@P6AXPEAVArrayImpl@impl@data@matlab@@@Z@detail@data@matlab@@YAP6AXPEAVArrayImpl@impl@23@@ZW4FunctionType@123@@Z@4V?$vector@U?$pair@W4FunctionType@detail@data@matlab@@V?$basic_string@DU?$char_traits@D@std@@V?$allocator@D@2@@std@@@std@@V?$allocator@U?$pair@W4FunctionType@detail@data@matlab@@V?$basic_string@DU?$char_traits@D@std@@V?$allocator@D@2@@std@@@std@@@2@@std@@B 	 DATA
	?minRelease@?4???$resolveFunction@P6AXPEAVNameListImpl@detail@data@matlab@@@Z@detail@data@matlab@@YAP6AXPEAVNameListImpl@123@@ZW4FunctionType@123@@Z@4V?$vector@U?$pair@W4FunctionType@detail@data@matlab@@V?$basic_string@DU?$char_traits@D@std@@V?$allocator@D@2@@std@@@std@@V?$allocator@U?$pair@W4FunctionType@detail@data@matlab@@V?$basic_string@DU?$char_traits@D@std@@V?$allocator@D@2@@std@@@std@@@2@@std@@B 	 DATA
	?minRelease@?4???$resolveFunction@P6AXPEAVNameListImpl@detail@data@matlab@@PEBD_K@Z@detail@data@matlab@@YAP6AXPEAVNameListImpl@123@PEBD_K@ZW4FunctionType@123@@Z@4V?$vector@U?$pair@W4FunctionType@detail@data@matlab@@V?$basic_string@DU?$char_traits@D@std@@V?$allocator@D@2@@std@@@std@@V?$allocator@U?$pair@W4FunctionType@detail@data@matlab@@V?$basic_string@DU?$char_traits@D@std@@V?$allocator@D@2@@std@@@std@@@2@@std@@B 	 DATA
	?minRelease@?4???$resolveFunction@P6AXPEAVReferenceImpl@detail@data@matlab@@@Z@detail@data@matlab@@YAP6AXPEAVReferenceImpl@123@@ZW4FunctionType@123@@Z@4V?$vector@U?$pair@W4FunctionType@detail@data@matlab@@V?$basic_string@DU?$char_traits@D@std@@V?$allocator@D@2@@std@@@std@@V?$allocator@U?$pair@W4FunctionType@detail@data@matlab@@V?$basic_string@DU?$char_traits@D@std@@V?$allocator@D@2@@std@@@std@@@2@@std@@B 	 DATA
	?minRelease@?4???$resolveFunction@P6AXPEAVReferenceImpl@detail@data@matlab@@PEAPEAVArrayImpl@impl@34@@Z@detail@data@matlab@@YAP6AXPEAVReferenceImpl@123@PEAPEAVArrayImpl@impl@23@@ZW4FunctionType@123@@Z@4V?$vector@U?$pair@W4FunctionType@detail@data@matlab@@V?$basic_string@DU?$char_traits@D@std@@V?$allocator@D@2@@std@@@std@@V?$allocator@U?$pair@W4FunctionType@detail@data@matlab@@V?$basic_string@DU?$char_traits@D@std@@V?$allocator@D@2@@std@@@std@@@2@@std@@B 	 DATA
	?minRelease@?4???$resolveFunction@P6A_NPEAVArrayImpl@impl@data@matlab@@_NPEAPEAV1234@@Z@detail@data@matlab@@YAP6A_NPEAVArrayImpl@impl@23@_NPEAPEAV4523@@ZW4FunctionType@123@@Z@4V?$vector@U?$pair@W4FunctionType@detail@data@matlab@@V?$basic_string@DU?$char_traits@D@std@@V?$allocator@D@2@@std@@@std@@V?$allocator@U?$pair@W4FunctionType@detail@data@matlab@@V?$basic_string@DU?$char_traits@D@std@@V?$allocator@D@2@@std@@@std@@@2@@std@@B 	 DATA
	??$?0$$QEAV?$basic_string@DU?$char_traits@D@std@@V?$allocator@D@2@@std@@$$Z$$V@?$pair@$$CBV?$basic_string@DU?$char_traits@D@std@@V?$allocator@D@2@@std@@V12@@std@@QEAA@Upiecewise_construct_t@1@V?$tuple@$$QEAV?$basic_string@DU?$char_traits@D@std@@V?$allocator@D@2@@std@@@1@V?$tuple@$$V@1@@Z
	??$?0$$V@?$_Ref_count_obj2@V?$ROSBagWriterImpl@U?$AddTwoIntsRequest_@V?$allocator@X@std@@@simple_msgs@@Vsimple_msgs_msg_AddTwoIntsRequest_common@@@@@std@@QEAA@XZ
	??$?0$$V@?$_Ref_count_obj2@V?$ROSBagWriterImpl@U?$AddTwoIntsResponse_@V?$allocator@X@std@@@simple_msgs@@Vsimple_msgs_msg_AddTwoIntsResponse_common@@@@@std@@QEAA@XZ
	??$?0$$V@?$_Ref_count_obj2@V?$ROSBagWriterImpl@U?$Num_@V?$allocator@X@std@@@simple_msgs@@Vsimple_msgs_msg_Num_common@@@@@std@@QEAA@XZ
	??$?0$$V@?$_Ref_count_obj2@V?$ROSPublisherImpl@U?$AddTwoIntsRequest_@V?$allocator@X@std@@@simple_msgs@@Vsimple_msgs_msg_AddTwoIntsRequest_common@@@@@std@@QEAA@XZ
	??$?0$$V@?$_Ref_count_obj2@V?$ROSPublisherImpl@U?$AddTwoIntsResponse_@V?$allocator@X@std@@@simple_msgs@@Vsimple_msgs_msg_AddTwoIntsResponse_common@@@@@std@@QEAA@XZ
	??$?0$$V@?$_Ref_count_obj2@V?$ROSPublisherImpl@U?$Num_@V?$allocator@X@std@@@simple_msgs@@Vsimple_msgs_msg_Num_common@@@@@std@@QEAA@XZ
	??$?0$$V@?$_Ref_count_obj2@V?$ROSSubscriberImpl@U?$AddTwoIntsRequest_@V?$allocator@X@std@@@simple_msgs@@V?$shared_ptr@$$CBU?$AddTwoIntsRequest_@V?$allocator@X@std@@@simple_msgs@@@mwboost@@Vsimple_msgs_msg_AddTwoIntsRequest_common@@@@@std@@QEAA@XZ
	??$?0$$V@?$_Ref_count_obj2@V?$ROSSubscriberImpl@U?$AddTwoIntsResponse_@V?$allocator@X@std@@@simple_msgs@@V?$shared_ptr@$$CBU?$AddTwoIntsResponse_@V?$allocator@X@std@@@simple_msgs@@@mwboost@@Vsimple_msgs_msg_AddTwoIntsResponse_common@@@@@std@@QEAA@XZ
	??$?0$$V@?$_Ref_count_obj2@V?$ROSSubscriberImpl@U?$Num_@V?$allocator@X@std@@@simple_msgs@@V?$shared_ptr@$$CBU?$Num_@V?$allocator@X@std@@@simple_msgs@@@mwboost@@Vsimple_msgs_msg_Num_common@@@@@std@@QEAA@XZ
	??$?0$$V@?$_Ref_count_obj2@V?$ROSSvcClientImpl@UAddTwoInts@simple_msgs@@U?$AddTwoIntsRequest_@V?$allocator@X@std@@@2@U?$AddTwoIntsResponse_@V?$allocator@X@std@@@2@Vsimple_msgs_msg_AddTwoIntsRequest_common@@Vsimple_msgs_msg_AddTwoIntsResponse_common@@@@@std@@QEAA@XZ
	??$?0$$V@?$_Ref_count_obj2@V?$ROSSvcServerImpl@U?$AddTwoIntsRequest_@V?$allocator@X@std@@@simple_msgs@@U?$AddTwoIntsResponse_@V?$allocator@X@std@@@2@Vsimple_msgs_msg_AddTwoIntsRequest_common@@Vsimple_msgs_msg_AddTwoIntsResponse_common@@@@@std@@QEAA@XZ
	??$?0AEBI$$Z$$V@?$pair@$$CBIV?$multiset@UIndexEntry@rosbag@@U?$less@UIndexEntry@rosbag@@@std@@V?$allocator@UIndexEntry@rosbag@@@4@@std@@@std@@QEAA@Upiecewise_construct_t@1@V?$tuple@AEBI@1@V?$tuple@$$V@1@@Z
	??$?0AEBUIndexEntry@rosbag@@@?$_Tree_temp_node@V?$allocator@U?$_Tree_node@UIndexEntry@rosbag@@PEAX@std@@@std@@@std@@QEAA@AEAV?$allocator@U?$_Tree_node@UIndexEntry@rosbag@@PEAX@std@@@1@PEAU?$_Tree_node@UIndexEntry@rosbag@@PEAX@1@AEBUIndexEntry@rosbag@@@Z
	??$?0AEBUpiecewise_construct_t@std@@V?$tuple@$$QEAV?$basic_string@DU?$char_traits@D@std@@V?$allocator@D@2@@std@@@1@V?$tuple@$$V@1@@?$_Tree_temp_node@V?$allocator@U?$_Tree_node@U?$pair@$$CBV?$basic_string@DU?$char_traits@D@std@@V?$allocator@D@2@@std@@V12@@std@@PEAX@std@@@std@@@std@@QEAA@AEAV?$allocator@U?$_Tree_node@U?$pair@$$CBV?$basic_string@DU?$char_traits@D@std@@V?$allocator@D@2@@std@@V12@@std@@PEAX@std@@@1@PEAU?$_Tree_node@U?$pair@$$CBV?$basic_string@DU?$char_traits@D@std@@V?$allocator@D@2@@std@@V12@@std@@PEAX@1@AEBUpiecewise_construct_t@1@$$QEAV?$tuple@$$QEAV?$basic_string@DU?$char_traits@D@std@@V?$allocator@D@2@@std@@@1@$$QEAV?$tuple@$$V@1@@Z
	??$?0AEBUpiecewise_construct_t@std@@V?$tuple@AEBI@1@V?$tuple@$$V@1@@?$_Tree_temp_node@V?$allocator@U?$_Tree_node@U?$pair@$$CBII@std@@PEAX@std@@@std@@@std@@QEAA@AEAV?$allocator@U?$_Tree_node@U?$pair@$$CBII@std@@PEAX@std@@@1@PEAU?$_Tree_node@U?$pair@$$CBII@std@@PEAX@1@AEBUpiecewise_construct_t@1@$$QEAV?$tuple@AEBI@1@$$QEAV?$tuple@$$V@1@@Z
	??$?0AEBUpiecewise_construct_t@std@@V?$tuple@AEBI@1@V?$tuple@$$V@1@@?$_Tree_temp_node@V?$allocator@U?$_Tree_node@U?$pair@$$CBIPEAUConnectionInfo@rosbag@@@std@@PEAX@std@@@std@@@std@@QEAA@AEAV?$allocator@U?$_Tree_node@U?$pair@$$CBIPEAUConnectionInfo@rosbag@@@std@@PEAX@std@@@1@PEAU?$_Tree_node@U?$pair@$$CBIPEAUConnectionInfo@rosbag@@@std@@PEAX@1@AEBUpiecewise_construct_t@1@$$QEAV?$tuple@AEBI@1@$$QEAV?$tuple@$$V@1@@Z
	??$?0AEBUpiecewise_construct_t@std@@V?$tuple@AEBI@1@V?$tuple@$$V@1@@?$_Tree_temp_node@V?$allocator@U?$_Tree_node@U?$pair@$$CBIV?$multiset@UIndexEntry@rosbag@@U?$less@UIndexEntry@rosbag@@@std@@V?$allocator@UIndexEntry@rosbag@@@4@@std@@@std@@PEAX@std@@@std@@@std@@QEAA@AEAV?$allocator@U?$_Tree_node@U?$pair@$$CBIV?$multiset@UIndexEntry@rosbag@@U?$less@UIndexEntry@rosbag@@@std@@V?$allocator@UIndexEntry@rosbag@@@4@@std@@@std@@PEAX@std@@@1@PEAU?$_Tree_node@U?$pair@$$CBIV?$multiset@UIndexEntry@rosbag@@U?$less@UIndexEntry@rosbag@@@std@@V?$allocator@UIndexEntry@rosbag@@@4@@std@@@std@@PEAX@1@AEBUpiecewise_construct_t@1@$$QEAV?$tuple@AEBI@1@$$QEAV?$tuple@$$V@1@@Z
	??$?0AEBUpiecewise_construct_t@std@@V?$tuple@AEBV?$basic_string@DU?$char_traits@D@std@@V?$allocator@D@2@@std@@@1@V?$tuple@$$V@1@@?$_Tree_temp_node@V?$allocator@U?$_Tree_node@U?$pair@$$CBV?$basic_string@DU?$char_traits@D@std@@V?$allocator@D@2@@std@@I@std@@PEAX@std@@@std@@@std@@QEAA@AEAV?$allocator@U?$_Tree_node@U?$pair@$$CBV?$basic_string@DU?$char_traits@D@std@@V?$allocator@D@2@@std@@I@std@@PEAX@std@@@1@PEAU?$_Tree_node@U?$pair@$$CBV?$basic_string@DU?$char_traits@D@std@@V?$allocator@D@2@@std@@I@std@@PEAX@1@AEBUpiecewise_construct_t@1@$$QEAV?$tuple@AEBV?$basic_string@DU?$char_traits@D@std@@V?$allocator@D@2@@std@@@1@$$QEAV?$tuple@$$V@1@@Z
	??$?0AEBUpiecewise_construct_t@std@@V?$tuple@AEBV?$basic_string@DU?$char_traits@D@std@@V?$allocator@D@2@@std@@@1@V?$tuple@$$V@1@@?$_Tree_temp_node@V?$allocator@U?$_Tree_node@U?$pair@$$CBV?$basic_string@DU?$char_traits@D@std@@V?$allocator@D@2@@std@@PEAVAbstractMetaObjectBase@impl@ros1_class_loader@@@std@@PEAX@std@@@std@@@std@@QEAA@AEAV?$allocator@U?$_Tree_node@U?$pair@$$CBV?$basic_string@DU?$char_traits@D@std@@V?$allocator@D@2@@std@@PEAVAbstractMetaObjectBase@impl@ros1_class_loader@@@std@@PEAX@std@@@1@PEAU?$_Tree_node@U?$pair@$$CBV?$basic_string@DU?$char_traits@D@std@@V?$allocator@D@2@@std@@PEAVAbstractMetaObjectBase@impl@ros1_class_loader@@@std@@PEAX@1@AEBUpiecewise_construct_t@1@$$QEAV?$tuple@AEBV?$basic_string@DU?$char_traits@D@std@@V?$allocator@D@2@@std@@@1@$$QEAV?$tuple@$$V@1@@Z
	??$?0AEBUpiecewise_construct_t@std@@V?$tuple@AEBV?$basic_string@DU?$char_traits@D@std@@V?$allocator@D@2@@std@@@1@V?$tuple@$$V@1@@?$_Tree_temp_node@V?$allocator@U?$_Tree_node@U?$pair@$$CBV?$basic_string@DU?$char_traits@D@std@@V?$allocator@D@2@@std@@V12@@std@@PEAX@std@@@std@@@std@@QEAA@AEAV?$allocator@U?$_Tree_node@U?$pair@$$CBV?$basic_string@DU?$char_traits@D@std@@V?$allocator@D@2@@std@@V12@@std@@PEAX@std@@@1@PEAU?$_Tree_node@U?$pair@$$CBV?$basic_string@DU?$char_traits@D@std@@V?$allocator@D@2@@std@@V12@@std@@PEAX@1@AEBUpiecewise_construct_t@1@$$QEAV?$tuple@AEBV?$basic_string@DU?$char_traits@D@std@@V?$allocator@D@2@@std@@@1@$$QEAV?$tuple@$$V@1@@Z
	??$?0AEBUpiecewise_construct_t@std@@V?$tuple@AEBV?$map@V?$basic_string@DU?$char_traits@D@std@@V?$allocator@D@2@@std@@V12@U?$less@V?$basic_string@DU?$char_traits@D@std@@V?$allocator@D@2@@std@@@2@V?$allocator@U?$pair@$$CBV?$basic_string@DU?$char_traits@D@std@@V?$allocator@D@2@@std@@V12@@std@@@2@@std@@@1@V?$tuple@$$V@1@@?$_Tree_temp_node@V?$allocator@U?$_Tree_node@U?$pair@$$CBV?$map@V?$basic_string@DU?$char_traits@D@std@@V?$allocator@D@2@@std@@V12@U?$less@V?$basic_string@DU?$char_traits@D@std@@V?$allocator@D@2@@std@@@2@V?$allocator@U?$pair@$$CBV?$basic_string@DU?$char_traits@D@std@@V?$allocator@D@2@@std@@V12@@std@@@2@@std@@I@std@@PEAX@std@@@std@@@std@@QEAA@AEAV?$allocator@U?$_Tree_node@U?$pair@$$CBV?$map@V?$basic_string@DU?$char_traits@D@std@@V?$allocator@D@2@@std@@V12@U?$less@V?$basic_string@DU?$char_traits@D@std@@V?$allocator@D@2@@std@@@2@V?$allocator@U?$pair@$$CBV?$basic_string@DU?$char_traits@D@std@@V?$allocator@D@2@@std@@V12@@std@@@2@@std@@I@std@@PEAX@std@@@1@PEAU?$_Tree_node@U?$pair@$$CBV?$map@V?$basic_string@DU?$char_traits@D@std@@V?$allocator@D@2@@std@@V12@U?$less@V?$basic_string@DU?$char_traits@D@std@@V?$allocator@D@2@@std@@@2@V?$allocator@U?$pair@$$CBV?$basic_string@DU?$char_traits@D@std@@V?$allocator@D@2@@std@@V12@@std@@@2@@std@@I@std@@PEAX@1@AEBUpiecewise_construct_t@1@$$QEAV?$tuple@AEBV?$map@V?$basic_string@DU?$char_traits@D@std@@V?$allocator@D@2@@std@@V12@U?$less@V?$basic_string@DU?$char_traits@D@std@@V?$allocator@D@2@@std@@@2@V?$allocator@U?$pair@$$CBV?$basic_string@DU?$char_traits@D@std@@V?$allocator@D@2@@std@@V12@@std@@@2@@std@@@1@$$QEAV?$tuple@$$V@1@@Z
	??$?0AEBV?$allocator@V?$basic_string@DU?$char_traits@D@std@@V?$allocator@D@2@@std@@@std@@$$V@?$_Compressed_pair@V?$allocator@V?$basic_string@DU?$char_traits@D@std@@V?$allocator@D@2@@std@@@std@@V?$_Vector_val@U?$_Simple_types@V?$basic_string@DU?$char_traits@D@std@@V?$allocator@D@2@@std@@@std@@@2@$00@std@@QEAA@U_One_then_variadic_args_t@1@AEBV?$allocator@V?$basic_string@DU?$char_traits@D@std@@V?$allocator@D@2@@std@@@1@@Z
	??$?0AEBV?$allocator@_K@std@@$$V@?$_Compressed_pair@V?$allocator@_K@std@@V?$_Vector_val@U?$_Simple_types@_K@std@@@2@$00@std@@QEAA@U_One_then_variadic_args_t@1@AEBV?$allocator@_K@1@@Z
	??$?0AEBV?$basic_string@DU?$char_traits@D@std@@V?$allocator@D@2@@std@@$$Z$$V@?$pair@$$CBV?$basic_string@DU?$char_traits@D@std@@V?$allocator@D@2@@std@@I@std@@QEAA@Upiecewise_construct_t@1@V?$tuple@AEBV?$basic_string@DU?$char_traits@D@std@@V?$allocator@D@2@@std@@@1@V?$tuple@$$V@1@@Z
	??$?0AEBV?$basic_string@DU?$char_traits@D@std@@V?$allocator@D@2@@std@@$$Z$$V@?$pair@$$CBV?$basic_string@DU?$char_traits@D@std@@V?$allocator@D@2@@std@@PEAVAbstractMetaObjectBase@impl@ros1_class_loader@@@std@@QEAA@Upiecewise_construct_t@1@V?$tuple@AEBV?$basic_string@DU?$char_traits@D@std@@V?$allocator@D@2@@std@@@1@V?$tuple@$$V@1@@Z
	??$?0AEBV?$basic_string@DU?$char_traits@D@std@@V?$allocator@D@2@@std@@$$Z$$V@?$pair@$$CBV?$basic_string@DU?$char_traits@D@std@@V?$allocator@D@2@@std@@V12@@std@@QEAA@Upiecewise_construct_t@1@V?$tuple@AEBV?$basic_string@DU?$char_traits@D@std@@V?$allocator@D@2@@std@@@1@V?$tuple@$$V@1@@Z
	??$?0AEBV?$map@V?$basic_string@DU?$char_traits@D@std@@V?$allocator@D@2@@std@@V12@U?$less@V?$basic_string@DU?$char_traits@D@std@@V?$allocator@D@2@@std@@@2@V?$allocator@U?$pair@$$CBV?$basic_string@DU?$char_traits@D@std@@V?$allocator@D@2@@std@@V12@@std@@@2@@std@@$$Z$$V@?$pair@$$CBV?$map@V?$basic_string@DU?$char_traits@D@std@@V?$allocator@D@2@@std@@V12@U?$less@V?$basic_string@DU?$char_traits@D@std@@V?$allocator@D@2@@std@@@2@V?$allocator@U?$pair@$$CBV?$basic_string@DU?$char_traits@D@std@@V?$allocator@D@2@@std@@V12@@std@@@2@@std@@I@std@@QEAA@Upiecewise_construct_t@1@V?$tuple@AEBV?$map@V?$basic_string@DU?$char_traits@D@std@@V?$allocator@D@2@@std@@V12@U?$less@V?$basic_string@DU?$char_traits@D@std@@V?$allocator@D@2@@std@@@2@V?$allocator@U?$pair@$$CBV?$basic_string@DU?$char_traits@D@std@@V?$allocator@D@2@@std@@V12@@std@@@2@@std@@@1@V?$tuple@$$V@1@@Z
	??$?0PEAEU?$checked_array_deleter@E@mwboost@@@shared_count@detail@mwboost@@QEAA@PEAEU?$checked_array_deleter@E@2@@Z
	??$?0PEAU?$AddTwoIntsRequest_@V?$allocator@X@std@@@simple_msgs@@V?$sp_ms_deleter@U?$AddTwoIntsRequest_@V?$allocator@X@std@@@simple_msgs@@@detail@mwboost@@@shared_count@detail@mwboost@@QEAA@PEAU?$AddTwoIntsRequest_@V?$allocator@X@std@@@simple_msgs@@U?$sp_inplace_tag@V?$sp_ms_deleter@U?$AddTwoIntsRequest_@V?$allocator@X@std@@@simple_msgs@@@detail@mwboost@@@12@@Z
	??$?0PEAU?$AddTwoIntsResponse_@V?$allocator@X@std@@@simple_msgs@@V?$sp_ms_deleter@U?$AddTwoIntsResponse_@V?$allocator@X@std@@@simple_msgs@@@detail@mwboost@@@shared_count@detail@mwboost@@QEAA@PEAU?$AddTwoIntsResponse_@V?$allocator@X@std@@@simple_msgs@@U?$sp_inplace_tag@V?$sp_ms_deleter@U?$AddTwoIntsResponse_@V?$allocator@X@std@@@simple_msgs@@@detail@mwboost@@@12@@Z
	??$?0PEAU?$Num_@V?$allocator@X@std@@@simple_msgs@@V?$sp_ms_deleter@U?$Num_@V?$allocator@X@std@@@simple_msgs@@@detail@mwboost@@@shared_count@detail@mwboost@@QEAA@PEAU?$Num_@V?$allocator@X@std@@@simple_msgs@@U?$sp_inplace_tag@V?$sp_ms_deleter@U?$Num_@V?$allocator@X@std@@@simple_msgs@@@detail@mwboost@@@12@@Z
	??$?0PEAV?$ServiceCallbackHelperT@U?$ServiceSpec@U?$AddTwoIntsRequest_@V?$allocator@X@std@@@simple_msgs@@U?$AddTwoIntsResponse_@V?$allocator@X@std@@@2@@ros@@@ros@@V?$sp_ms_deleter@V?$ServiceCallbackHelperT@U?$ServiceSpec@U?$AddTwoIntsRequest_@V?$allocator@X@std@@@simple_msgs@@U?$AddTwoIntsResponse_@V?$allocator@X@std@@@2@@ros@@@ros@@@detail@mwboost@@@shared_count@detail@mwboost@@QEAA@PEAV?$ServiceCallbackHelperT@U?$ServiceSpec@U?$AddTwoIntsRequest_@V?$allocator@X@std@@@simple_msgs@@U?$AddTwoIntsResponse_@V?$allocator@X@std@@@2@@ros@@@ros@@U?$sp_inplace_tag@V?$sp_ms_deleter@V?$ServiceCallbackHelperT@U?$ServiceSpec@U?$AddTwoIntsRequest_@V?$allocator@X@std@@@simple_msgs@@U?$AddTwoIntsResponse_@V?$allocator@X@std@@@2@@ros@@@ros@@@detail@mwboost@@@12@@Z
	??$?0PEAV?$SubscriptionCallbackHelperT@AEBV?$shared_ptr@$$CBU?$AddTwoIntsRequest_@V?$allocator@X@std@@@simple_msgs@@@mwboost@@X@ros@@V?$sp_ms_deleter@V?$SubscriptionCallbackHelperT@AEBV?$shared_ptr@$$CBU?$AddTwoIntsRequest_@V?$allocator@X@std@@@simple_msgs@@@mwboost@@X@ros@@@detail@mwboost@@@shared_count@detail@mwboost@@QEAA@PEAV?$SubscriptionCallbackHelperT@AEBV?$shared_ptr@$$CBU?$AddTwoIntsRequest_@V?$allocator@X@std@@@simple_msgs@@@mwboost@@X@ros@@U?$sp_inplace_tag@V?$sp_ms_deleter@V?$SubscriptionCallbackHelperT@AEBV?$shared_ptr@$$CBU?$AddTwoIntsRequest_@V?$allocator@X@std@@@simple_msgs@@@mwboost@@X@ros@@@detail@mwboost@@@12@@Z
	??$?0PEAV?$SubscriptionCallbackHelperT@AEBV?$shared_ptr@$$CBU?$AddTwoIntsResponse_@V?$allocator@X@std@@@simple_msgs@@@mwboost@@X@ros@@V?$sp_ms_deleter@V?$SubscriptionCallbackHelperT@AEBV?$shared_ptr@$$CBU?$AddTwoIntsResponse_@V?$allocator@X@std@@@simple_msgs@@@mwboost@@X@ros@@@detail@mwboost@@@shared_count@detail@mwboost@@QEAA@PEAV?$SubscriptionCallbackHelperT@AEBV?$shared_ptr@$$CBU?$AddTwoIntsResponse_@V?$allocator@X@std@@@simple_msgs@@@mwboost@@X@ros@@U?$sp_inplace_tag@V?$sp_ms_deleter@V?$SubscriptionCallbackHelperT@AEBV?$shared_ptr@$$CBU?$AddTwoIntsResponse_@V?$allocator@X@std@@@simple_msgs@@@mwboost@@X@ros@@@detail@mwboost@@@12@@Z
	??$?0PEAV?$SubscriptionCallbackHelperT@AEBV?$shared_ptr@$$CBU?$Num_@V?$allocator@X@std@@@simple_msgs@@@mwboost@@X@ros@@V?$sp_ms_deleter@V?$SubscriptionCallbackHelperT@AEBV?$shared_ptr@$$CBU?$Num_@V?$allocator@X@std@@@simple_msgs@@@mwboost@@X@ros@@@detail@mwboost@@@shared_count@detail@mwboost@@QEAA@PEAV?$SubscriptionCallbackHelperT@AEBV?$shared_ptr@$$CBU?$Num_@V?$allocator@X@std@@@simple_msgs@@@mwboost@@X@ros@@U?$sp_inplace_tag@V?$sp_ms_deleter@V?$SubscriptionCallbackHelperT@AEBV?$shared_ptr@$$CBU?$Num_@V?$allocator@X@std@@@simple_msgs@@@mwboost@@X@ros@@@detail@mwboost@@@12@@Z
	??$?0PEAV?$map@V?$basic_string@DU?$char_traits@D@std@@V?$allocator@D@2@@std@@V12@U?$less@V?$basic_string@DU?$char_traits@D@std@@V?$allocator@D@2@@std@@@2@V?$allocator@U?$pair@$$CBV?$basic_string@DU?$char_traits@D@std@@V?$allocator@D@2@@std@@V12@@std@@@2@@std@@V?$sp_ms_deleter@V?$map@V?$basic_string@DU?$char_traits@D@std@@V?$allocator@D@2@@std@@V12@U?$less@V?$basic_string@DU?$char_traits@D@std@@V?$allocator@D@2@@std@@@2@V?$allocator@U?$pair@$$CBV?$basic_string@DU?$char_traits@D@std@@V?$allocator@D@2@@std@@V12@@std@@@2@@std@@@detail@mwboost@@@shared_count@detail@mwboost@@QEAA@PEAV?$map@V?$basic_string@DU?$char_traits@D@std@@V?$allocator@D@2@@std@@V12@U?$less@V?$basic_string@DU?$char_traits@D@std@@V?$allocator@D@2@@std@@@2@V?$allocator@U?$pair@$$CBV?$basic_string@DU?$char_traits@D@std@@V?$allocator@D@2@@std@@V12@@std@@@2@@std@@U?$sp_inplace_tag@V?$sp_ms_deleter@V?$map@V?$basic_string@DU?$char_traits@D@std@@V?$allocator@D@2@@std@@V12@U?$less@V?$basic_string@DU?$char_traits@D@std@@V?$allocator@D@2@@std@@@2@V?$allocator@U?$pair@$$CBV?$basic_string@DU?$char_traits@D@std@@V?$allocator@D@2@@std@@V12@@std@@@2@@std@@@detail@mwboost@@@12@@Z
	??$?0U?$pair@$$CB_JU?$AddTwoIntsRequest_@V?$allocator@X@std@@@simple_msgs@@@std@@@?$_Tree_temp_node@V?$allocator@U?$_Tree_node@U?$pair@$$CB_JU?$AddTwoIntsRequest_@V?$allocator@X@std@@@simple_msgs@@@std@@PEAX@std@@@std@@@std@@QEAA@AEAV?$allocator@U?$_Tree_node@U?$pair@$$CB_JU?$AddTwoIntsRequest_@V?$allocator@X@std@@@simple_msgs@@@std@@PEAX@std@@@1@PEAU?$_Tree_node@U?$pair@$$CB_JU?$AddTwoIntsRequest_@V?$allocator@X@std@@@simple_msgs@@@std@@PEAX@1@$$QEAU?$pair@$$CB_JU?$AddTwoIntsRequest_@V?$allocator@X@std@@@simple_msgs@@@1@@Z
	??$?0V?$allocator@U?$_Tree_node@U?$pair@$$CBV?$basic_string@DU?$char_traits@D@std@@V?$allocator@D@2@@std@@V12@@std@@PEAX@std@@@std@@@?$_Tree@V?$_Tmap_traits@V?$basic_string@DU?$char_traits@D@std@@V?$allocator@D@2@@std@@V12@U?$less@V?$basic_string@DU?$char_traits@D@std@@V?$allocator@D@2@@std@@@2@V?$allocator@U?$pair@$$CBV?$basic_string@DU?$char_traits@D@std@@V?$allocator@D@2@@std@@V12@@std@@@2@$0A@@std@@@std@@QEAA@AEBV01@$$QEAV?$allocator@U?$_Tree_node@U?$pair@$$CBV?$basic_string@DU?$char_traits@D@std@@V?$allocator@D@2@@std@@V12@@std@@PEAX@std@@@1@@Z
	??$?0V?$clone_impl@Ubad_alloc_@exception_detail@mwboost@@@exception_detail@mwboost@@@?$shared_ptr@$$CBVclone_base@exception_detail@mwboost@@@mwboost@@QEAA@PEAV?$clone_impl@Ubad_alloc_@exception_detail@mwboost@@@exception_detail@1@@Z
	??$?0V?$clone_impl@Ubad_alloc_@exception_detail@mwboost@@@exception_detail@mwboost@@@shared_count@detail@mwboost@@QEAA@PEAV?$clone_impl@Ubad_alloc_@exception_detail@mwboost@@@exception_detail@2@@Z
	??$?0V?$clone_impl@Ubad_exception_@exception_detail@mwboost@@@exception_detail@mwboost@@@?$shared_ptr@$$CBVclone_base@exception_detail@mwboost@@@mwboost@@QEAA@PEAV?$clone_impl@Ubad_exception_@exception_detail@mwboost@@@exception_detail@1@@Z
	??$?0V?$clone_impl@Ubad_exception_@exception_detail@mwboost@@@exception_detail@mwboost@@@shared_count@detail@mwboost@@QEAA@PEAV?$clone_impl@Ubad_exception_@exception_detail@mwboost@@@exception_detail@2@@Z
	??$?0V?$function@$$A6AXAEBV?$shared_ptr@$$CBU?$AddTwoIntsRequest_@V?$allocator@X@std@@@simple_msgs@@@mwboost@@@Z@mwboost@@@?$function@$$A6AXV?$shared_ptr@$$CBU?$AddTwoIntsRequest_@V?$allocator@X@std@@@simple_msgs@@@mwboost@@@Z@mwboost@@QEAA@V?$function@$$A6AXAEBV?$shared_ptr@$$CBU?$AddTwoIntsRequest_@V?$allocator@X@std@@@simple_msgs@@@mwboost@@@Z@1@H@Z
	??$?0V?$function@$$A6AXAEBV?$shared_ptr@$$CBU?$AddTwoIntsResponse_@V?$allocator@X@std@@@simple_msgs@@@mwboost@@@Z@mwboost@@@?$function@$$A6AXV?$shared_ptr@$$CBU?$AddTwoIntsResponse_@V?$allocator@X@std@@@simple_msgs@@@mwboost@@@Z@mwboost@@QEAA@V?$function@$$A6AXAEBV?$shared_ptr@$$CBU?$AddTwoIntsResponse_@V?$allocator@X@std@@@simple_msgs@@@mwboost@@@Z@1@H@Z
	??$?0V?$function@$$A6AXAEBV?$shared_ptr@$$CBU?$Num_@V?$allocator@X@std@@@simple_msgs@@@mwboost@@@Z@mwboost@@@?$function@$$A6AXV?$shared_ptr@$$CBU?$Num_@V?$allocator@X@std@@@simple_msgs@@@mwboost@@@Z@mwboost@@QEAA@V?$function@$$A6AXAEBV?$shared_ptr@$$CBU?$Num_@V?$allocator@X@std@@@simple_msgs@@@mwboost@@@Z@1@H@Z
	??$?0VPublisher@ros@@@?$_Ref_count_obj2@VPublisher@ros@@@std@@QEAA@$$QEAVPublisher@ros@@@Z
	??$?0VServiceClient@ros@@@?$_Ref_count_obj2@VServiceClient@ros@@@std@@QEAA@$$QEAVServiceClient@ros@@@Z
	??$?0VServiceServer@ros@@@?$_Ref_count_obj2@VServiceServer@ros@@@std@@QEAA@$$QEAVServiceServer@ros@@@Z
	??$?0VSubscriber@ros@@@?$_Ref_count_obj2@VSubscriber@ros@@@std@@QEAA@$$QEAVSubscriber@ros@@@Z
	??$?0W4FunctionType@detail@data@matlab@@AEAY06$$CBD$0A@@?$pair@W4FunctionType@detail@data@matlab@@V?$basic_string@DU?$char_traits@D@std@@V?$allocator@D@2@@std@@@std@@QEAA@$$QEAW4FunctionType@detail@data@matlab@@AEAY06$$CBD@Z
	??$?4U?$AddTwoIntsRequest_@V?$allocator@X@std@@@simple_msgs@@@?$shared_ptr@$$CBX@mwboost@@QEAAAEAV01@AEBV?$shared_ptr@U?$AddTwoIntsRequest_@V?$allocator@X@std@@@simple_msgs@@@1@@Z
	??$?4U?$AddTwoIntsResponse_@V?$allocator@X@std@@@simple_msgs@@@?$shared_ptr@$$CBX@mwboost@@QEAAAEAV01@AEBV?$shared_ptr@U?$AddTwoIntsResponse_@V?$allocator@X@std@@@simple_msgs@@@1@@Z
	??$?4U?$Num_@V?$allocator@X@std@@@simple_msgs@@@?$shared_ptr@$$CBX@mwboost@@QEAAAEAV01@AEBV?$shared_ptr@U?$Num_@V?$allocator@X@std@@@simple_msgs@@@1@@Z
	??$?4V?$ROSBagWriterImpl@U?$AddTwoIntsRequest_@V?$allocator@X@std@@@simple_msgs@@Vsimple_msgs_msg_AddTwoIntsRequest_common@@@@@?$shared_ptr@VMATLABRosbagWriterInterface@@@std@@QEAAAEAV01@$$QEAV?$shared_ptr@V?$ROSBagWriterImpl@U?$AddTwoIntsRequest_@V?$allocator@X@std@@@simple_msgs@@Vsimple_msgs_msg_AddTwoIntsRequest_common@@@@@1@@Z
	??$?4V?$ROSBagWriterImpl@U?$AddTwoIntsResponse_@V?$allocator@X@std@@@simple_msgs@@Vsimple_msgs_msg_AddTwoIntsResponse_common@@@@@?$shared_ptr@VMATLABRosbagWriterInterface@@@std@@QEAAAEAV01@$$QEAV?$shared_ptr@V?$ROSBagWriterImpl@U?$AddTwoIntsResponse_@V?$allocator@X@std@@@simple_msgs@@Vsimple_msgs_msg_AddTwoIntsResponse_common@@@@@1@@Z
	??$?4V?$ROSPublisherImpl@U?$AddTwoIntsRequest_@V?$allocator@X@std@@@simple_msgs@@Vsimple_msgs_msg_AddTwoIntsRequest_common@@@@@?$shared_ptr@VMATLABPublisherInterface@@@std@@QEAAAEAV01@$$QEAV?$shared_ptr@V?$ROSPublisherImpl@U?$AddTwoIntsRequest_@V?$allocator@X@std@@@simple_msgs@@Vsimple_msgs_msg_AddTwoIntsRequest_common@@@@@1@@Z
	??$?4V?$ROSPublisherImpl@U?$AddTwoIntsResponse_@V?$allocator@X@std@@@simple_msgs@@Vsimple_msgs_msg_AddTwoIntsResponse_common@@@@@?$shared_ptr@VMATLABPublisherInterface@@@std@@QEAAAEAV01@$$QEAV?$shared_ptr@V?$ROSPublisherImpl@U?$AddTwoIntsResponse_@V?$allocator@X@std@@@simple_msgs@@Vsimple_msgs_msg_AddTwoIntsResponse_common@@@@@1@@Z
	??$?4V?$ROSSubscriberImpl@U?$AddTwoIntsRequest_@V?$allocator@X@std@@@simple_msgs@@V?$shared_ptr@$$CBU?$AddTwoIntsRequest_@V?$allocator@X@std@@@simple_msgs@@@mwboost@@Vsimple_msgs_msg_AddTwoIntsRequest_common@@@@@?$shared_ptr@VMATLABSubscriberInterface@@@std@@QEAAAEAV01@$$QEAV?$shared_ptr@V?$ROSSubscriberImpl@U?$AddTwoIntsRequest_@V?$allocator@X@std@@@simple_msgs@@V?$shared_ptr@$$CBU?$AddTwoIntsRequest_@V?$allocator@X@std@@@simple_msgs@@@mwboost@@Vsimple_msgs_msg_AddTwoIntsRequest_common@@@@@1@@Z
	??$?4V?$ROSSubscriberImpl@U?$AddTwoIntsResponse_@V?$allocator@X@std@@@simple_msgs@@V?$shared_ptr@$$CBU?$AddTwoIntsResponse_@V?$allocator@X@std@@@simple_msgs@@@mwboost@@Vsimple_msgs_msg_AddTwoIntsResponse_common@@@@@?$shared_ptr@VMATLABSubscriberInterface@@@std@@QEAAAEAV01@$$QEAV?$shared_ptr@V?$ROSSubscriberImpl@U?$AddTwoIntsResponse_@V?$allocator@X@std@@@simple_msgs@@V?$shared_ptr@$$CBU?$AddTwoIntsResponse_@V?$allocator@X@std@@@simple_msgs@@@mwboost@@Vsimple_msgs_msg_AddTwoIntsResponse_common@@@@@1@@Z
	??$?4V?$ServiceCallbackHelperT@U?$ServiceSpec@U?$AddTwoIntsRequest_@V?$allocator@X@std@@@simple_msgs@@U?$AddTwoIntsResponse_@V?$allocator@X@std@@@2@@ros@@@ros@@@?$shared_ptr@VServiceCallbackHelper@ros@@@mwboost@@QEAAAEAV01@$$QEAV?$shared_ptr@V?$ServiceCallbackHelperT@U?$ServiceSpec@U?$AddTwoIntsRequest_@V?$allocator@X@std@@@simple_msgs@@U?$AddTwoIntsResponse_@V?$allocator@X@std@@@2@@ros@@@ros@@@1@@Z
	??$?4V?$SubscriptionCallbackHelperT@AEBV?$shared_ptr@$$CBU?$AddTwoIntsRequest_@V?$allocator@X@std@@@simple_msgs@@@mwboost@@X@ros@@@?$shared_ptr@VSubscriptionCallbackHelper@ros@@@mwboost@@QEAAAEAV01@$$QEAV?$shared_ptr@V?$SubscriptionCallbackHelperT@AEBV?$shared_ptr@$$CBU?$AddTwoIntsRequest_@V?$allocator@X@std@@@simple_msgs@@@mwboost@@X@ros@@@1@@Z
	??$?4V?$SubscriptionCallbackHelperT@AEBV?$shared_ptr@$$CBU?$AddTwoIntsResponse_@V?$allocator@X@std@@@simple_msgs@@@mwboost@@X@ros@@@?$shared_ptr@VSubscriptionCallbackHelper@ros@@@mwboost@@QEAAAEAV01@$$QEAV?$shared_ptr@V?$SubscriptionCallbackHelperT@AEBV?$shared_ptr@$$CBU?$AddTwoIntsResponse_@V?$allocator@X@std@@@simple_msgs@@@mwboost@@X@ros@@@1@@Z
	??$?4V?$SubscriptionCallbackHelperT@AEBV?$shared_ptr@$$CBU?$Num_@V?$allocator@X@std@@@simple_msgs@@@mwboost@@X@ros@@@?$shared_ptr@VSubscriptionCallbackHelper@ros@@@mwboost@@QEAAAEAV01@$$QEAV?$shared_ptr@V?$SubscriptionCallbackHelperT@AEBV?$shared_ptr@$$CBU?$Num_@V?$allocator@X@std@@@simple_msgs@@@mwboost@@X@ros@@@1@@Z
	??$?6U?$char_traits@D@std@@@std@@YAAEAV?$basic_ostream@DU?$char_traits@D@std@@@0@AEAV10@PEBD@Z
	??$?BV?$TypedArray@_J@data@matlab@@VArray@12@X@?$ArrayElementTypedRef@VArray@data@matlab@@$00@data@matlab@@QEBA?AV?$TypedArray@_J@12@XZ
	??$?HDU?$char_traits@D@std@@V?$allocator@D@1@@std@@YA?AV?$basic_string@DU?$char_traits@D@std@@V?$allocator@D@2@@0@$$QEAV10@0@Z
	??$?M$$CBV?$basic_string@DU?$char_traits@D@std@@V?$allocator@D@2@@std@@V01@@std@@YA_NAEBU?$pair@$$CBV?$basic_string@DU?$char_traits@D@std@@V?$allocator@D@2@@std@@V12@@0@0@Z
	??$?MDU?$char_traits@D@std@@V?$allocator@D@1@@std@@YA_NAEBV?$basic_string@DU?$char_traits@D@std@@V?$allocator@D@2@@0@0@Z
	??$?MV?$basic_string@DU?$char_traits@D@std@@V?$allocator@D@2@@std@@V01@U?$less@V?$basic_string@DU?$char_traits@D@std@@V?$allocator@D@2@@std@@@1@V?$allocator@U?$pair@$$CBV?$basic_string@DU?$char_traits@D@std@@V?$allocator@D@2@@std@@V12@@std@@@1@@std@@YA_NAEBV?$map@V?$basic_string@DU?$char_traits@D@std@@V?$allocator@D@2@@std@@V12@U?$less@V?$basic_string@DU?$char_traits@D@std@@V?$allocator@D@2@@std@@@2@V?$allocator@U?$pair@$$CBV?$basic_string@DU?$char_traits@D@std@@V?$allocator@D@2@@std@@V12@@std@@@2@@0@0@Z
	??$?RAEAU?$AddTwoIntsRequest_@V?$allocator@X@std@@@simple_msgs@@AEAU?$AddTwoIntsResponse_@V?$allocator@X@std@@@1@@?$bind_t@_NV?$mf2@_NV?$ROSSvcServerImpl@U?$AddTwoIntsRequest_@V?$allocator@X@std@@@simple_msgs@@U?$AddTwoIntsResponse_@V?$allocator@X@std@@@2@Vsimple_msgs_msg_AddTwoIntsRequest_common@@Vsimple_msgs_msg_AddTwoIntsResponse_common@@@@AEAU?$AddTwoIntsRequest_@V?$allocator@X@std@@@simple_msgs@@AEAU?$AddTwoIntsResponse_@V?$allocator@X@std@@@3@@_mfi@mwboost@@V?$list3@V?$value@PEAV?$ROSSvcServerImpl@U?$AddTwoIntsRequest_@V?$allocator@X@std@@@simple_msgs@@U?$AddTwoIntsResponse_@V?$allocator@X@std@@@2@Vsimple_msgs_msg_AddTwoIntsRequest_common@@Vsimple_msgs_msg_AddTwoIntsResponse_common@@@@@_bi@mwboost@@U?$arg@$00@3@U?$arg@$01@3@@_bi@3@@_bi@mwboost@@QEAA_NAEAU?$AddTwoIntsRequest_@V?$allocator@X@std@@@simple_msgs@@AEAU?$AddTwoIntsResponse_@V?$allocator@X@std@@@4@@Z
	??$?RAEBV?$shared_ptr@$$CBU?$AddTwoIntsRequest_@V?$allocator@X@std@@@simple_msgs@@@mwboost@@@?$bind_t@XV?$mf1@XV?$ROSSubscriberImpl@U?$AddTwoIntsRequest_@V?$allocator@X@std@@@simple_msgs@@V?$shared_ptr@$$CBU?$AddTwoIntsRequest_@V?$allocator@X@std@@@simple_msgs@@@mwboost@@Vsimple_msgs_msg_AddTwoIntsRequest_common@@@@AEBV?$shared_ptr@$$CBU?$AddTwoIntsRequest_@V?$allocator@X@std@@@simple_msgs@@@mwboost@@@_mfi@mwboost@@V?$list2@V?$value@PEAV?$ROSSubscriberImpl@U?$AddTwoIntsRequest_@V?$allocator@X@std@@@simple_msgs@@V?$shared_ptr@$$CBU?$AddTwoIntsRequest_@V?$allocator@X@std@@@simple_msgs@@@mwboost@@Vsimple_msgs_msg_AddTwoIntsRequest_common@@@@@_bi@mwboost@@U?$arg@$00@3@@_bi@3@@_bi@mwboost@@QEAAXAEBV?$shared_ptr@$$CBU?$AddTwoIntsRequest_@V?$allocator@X@std@@@simple_msgs@@@2@@Z
	??$?RAEBV?$shared_ptr@$$CBU?$AddTwoIntsResponse_@V?$allocator@X@std@@@simple_msgs@@@mwboost@@@?$bind_t@XV?$mf1@XV?$ROSSubscriberImpl@U?$AddTwoIntsResponse_@V?$allocator@X@std@@@simple_msgs@@V?$shared_ptr@$$CBU?$AddTwoIntsResponse_@V?$allocator@X@std@@@simple_msgs@@@mwboost@@Vsimple_msgs_msg_AddTwoIntsResponse_common@@@@AEBV?$shared_ptr@$$CBU?$AddTwoIntsResponse_@V?$allocator@X@std@@@simple_msgs@@@mwboost@@@_mfi@mwboost@@V?$list2@V?$value@PEAV?$ROSSubscriberImpl@U?$AddTwoIntsResponse_@V?$allocator@X@std@@@simple_msgs@@V?$shared_ptr@$$CBU?$AddTwoIntsResponse_@V?$allocator@X@std@@@simple_msgs@@@mwboost@@Vsimple_msgs_msg_AddTwoIntsResponse_common@@@@@_bi@mwboost@@U?$arg@$00@3@@_bi@3@@_bi@mwboost@@QEAAXAEBV?$shared_ptr@$$CBU?$AddTwoIntsResponse_@V?$allocator@X@std@@@simple_msgs@@@2@@Z
	??$?RAEBV?$shared_ptr@$$CBU?$Num_@V?$allocator@X@std@@@simple_msgs@@@mwboost@@@?$bind_t@XV?$mf1@XV?$ROSSubscriberImpl@U?$Num_@V?$allocator@X@std@@@simple_msgs@@V?$shared_ptr@$$CBU?$Num_@V?$allocator@X@std@@@simple_msgs@@@mwboost@@Vsimple_msgs_msg_Num_common@@@@AEBV?$shared_ptr@$$CBU?$Num_@V?$allocator@X@std@@@simple_msgs@@@mwboost@@@_mfi@mwboost@@V?$list2@V?$value@PEAV?$ROSSubscriberImpl@U?$Num_@V?$allocator@X@std@@@simple_msgs@@V?$shared_ptr@$$CBU?$Num_@V?$allocator@X@std@@@simple_msgs@@@mwboost@@Vsimple_msgs_msg_Num_common@@@@@_bi@mwboost@@U?$arg@$00@3@@_bi@3@@_bi@mwboost@@QEAAXAEBV?$shared_ptr@$$CBU?$Num_@V?$allocator@X@std@@@simple_msgs@@@2@@Z
	??$_Allocate_manually_vector_aligned@U_Default_allocate_traits@std@@@std@@YAPEAX_K@Z
	??$_Atomic_address_as@JU?$_Atomic_padded@H@std@@@std@@YAPECJAEAU?$_Atomic_padded@H@0@@Z
	??$_Buyheadnode@V?$allocator@U?$_Tree_node@U?$pair@$$CBV?$basic_string@DU?$char_traits@D@std@@V?$allocator@D@2@@std@@V12@@std@@PEAX@std@@@std@@@?$_Tree_node@U?$pair@$$CBV?$basic_string@DU?$char_traits@D@std@@V?$allocator@D@2@@std@@V12@@std@@PEAX@std@@SAPEAU01@AEAV?$allocator@U?$_Tree_node@U?$pair@$$CBV?$basic_string@DU?$char_traits@D@std@@V?$allocator@D@2@@std@@V12@@std@@PEAX@std@@@1@@Z
	??$_Buyheadnode@V?$allocator@U?$_Tree_node@U?$pair@$$CB_JU?$AddTwoIntsRequest_@V?$allocator@X@std@@@simple_msgs@@@std@@PEAX@std@@@std@@@?$_Tree_node@U?$pair@$$CB_JU?$AddTwoIntsRequest_@V?$allocator@X@std@@@simple_msgs@@@std@@PEAX@std@@SAPEAU01@AEAV?$allocator@U?$_Tree_node@U?$pair@$$CB_JU?$AddTwoIntsRequest_@V?$allocator@X@std@@@simple_msgs@@@std@@PEAX@std@@@1@@Z
	??$_Buyheadnode@V?$allocator@U?$_Tree_node@UIndexEntry@rosbag@@PEAX@std@@@std@@@?$_Tree_node@UIndexEntry@rosbag@@PEAX@std@@SAPEAU01@AEAV?$allocator@U?$_Tree_node@UIndexEntry@rosbag@@PEAX@std@@@1@@Z
	??$_Buynode@AEAU?$pair@$$CBV?$basic_string@DU?$char_traits@D@std@@V?$allocator@D@2@@std@@V12@@std@@@?$_Tree@V?$_Tmap_traits@V?$basic_string@DU?$char_traits@D@std@@V?$allocator@D@2@@std@@V12@U?$less@V?$basic_string@DU?$char_traits@D@std@@V?$allocator@D@2@@std@@@2@V?$allocator@U?$pair@$$CBV?$basic_string@DU?$char_traits@D@std@@V?$allocator@D@2@@std@@V12@@std@@@2@$0A@@std@@@std@@IEAAPEAU?$_Tree_node@U?$pair@$$CBV?$basic_string@DU?$char_traits@D@std@@V?$allocator@D@2@@std@@V12@@std@@PEAX@1@AEAU?$pair@$$CBV?$basic_string@DU?$char_traits@D@std@@V?$allocator@D@2@@std@@V12@@1@@Z
	??$_Buynode@V?$allocator@U?$_Tree_node@U?$pair@$$CBV?$basic_string@DU?$char_traits@D@std@@V?$allocator@D@2@@std@@V12@@std@@PEAX@std@@@std@@AEAU?$pair@$$CBV?$basic_string@DU?$char_traits@D@std@@V?$allocator@D@2@@std@@V12@@2@@?$_Tree_node@U?$pair@$$CBV?$basic_string@DU?$char_traits@D@std@@V?$allocator@D@2@@std@@V12@@std@@PEAX@std@@SAPEAU01@AEAV?$allocator@U?$_Tree_node@U?$pair@$$CBV?$basic_string@DU?$char_traits@D@std@@V?$allocator@D@2@@std@@V12@@std@@PEAX@std@@@1@PEAU01@AEAU?$pair@$$CBV?$basic_string@DU?$char_traits@D@std@@V?$allocator@D@2@@std@@V12@@1@@Z
	??$_Copy@U_Copy_tag@?$_Tree@V?$_Tmap_traits@V?$basic_string@DU?$char_traits@D@std@@V?$allocator@D@2@@std@@V12@U?$less@V?$basic_string@DU?$char_traits@D@std@@V?$allocator@D@2@@std@@@2@V?$allocator@U?$pair@$$CBV?$basic_string@DU?$char_traits@D@std@@V?$allocator@D@2@@std@@V12@@std@@@2@$0A@@std@@@std@@@?$_Tree@V?$_Tmap_traits@V?$basic_string@DU?$char_traits@D@std@@V?$allocator@D@2@@std@@V12@U?$less@V?$basic_string@DU?$char_traits@D@std@@V?$allocator@D@2@@std@@@2@V?$allocator@U?$pair@$$CBV?$basic_string@DU?$char_traits@D@std@@V?$allocator@D@2@@std@@V12@@std@@@2@$0A@@std@@@std@@IEAAXAEBV01@U_Copy_tag@01@@Z
	??$_Copy_construct_from@VArrayImpl@impl@data@matlab@@@?$_Ptr_base@VArrayImpl@impl@data@matlab@@@std@@IEAAXAEBV?$shared_ptr@VArrayImpl@impl@data@matlab@@@1@@Z
	??$_Copy_construct_from@VReferenceImpl@detail@data@matlab@@@?$_Ptr_base@VReferenceImpl@detail@data@matlab@@@std@@IEAAXAEBV?$shared_ptr@VReferenceImpl@detail@data@matlab@@@1@@Z
	??$_Copy_memmove@PEB_KPEA_K@std@@YAPEA_KPEB_K0PEA_K@Z
	??$_Copy_nodes@U_Copy_tag@?$_Tree@V?$_Tmap_traits@V?$basic_string@DU?$char_traits@D@std@@V?$allocator@D@2@@std@@V12@U?$less@V?$basic_string@DU?$char_traits@D@std@@V?$allocator@D@2@@std@@@2@V?$allocator@U?$pair@$$CBV?$basic_string@DU?$char_traits@D@std@@V?$allocator@D@2@@std@@V12@@std@@@2@$0A@@std@@@std@@@?$_Tree@V?$_Tmap_traits@V?$basic_string@DU?$char_traits@D@std@@V?$allocator@D@2@@std@@V12@U?$less@V?$basic_string@DU?$char_traits@D@std@@V?$allocator@D@2@@std@@@2@V?$allocator@U?$pair@$$CBV?$basic_string@DU?$char_traits@D@std@@V?$allocator@D@2@@std@@V12@@std@@@2@$0A@@std@@@std@@IEAAPEAU?$_Tree_node@U?$pair@$$CBV?$basic_string@DU?$char_traits@D@std@@V?$allocator@D@2@@std@@V12@@std@@PEAX@1@PEAU21@0U_Copy_tag@01@@Z
	??$_Emplace@U?$pair@$$CB_JU?$AddTwoIntsRequest_@V?$allocator@X@std@@@simple_msgs@@@std@@@?$_Tree@V?$_Tmap_traits@_JU?$AddTwoIntsRequest_@V?$allocator@X@std@@@simple_msgs@@U?$less@_J@std@@V?$allocator@U?$pair@$$CB_JU?$AddTwoIntsRequest_@V?$allocator@X@std@@@simple_msgs@@@std@@@4@$0A@@std@@@std@@IEAA?AU?$pair@PEAU?$_Tree_node@U?$pair@$$CB_JU?$AddTwoIntsRequest_@V?$allocator@X@std@@@simple_msgs@@@std@@PEAX@std@@_N@1@$$QEAU?$pair@$$CB_JU?$AddTwoIntsRequest_@V?$allocator@X@std@@@simple_msgs@@@1@@Z
	??$_Emplace_back@AEBU?$pair@W4FunctionType@detail@data@matlab@@V?$basic_string@DU?$char_traits@D@std@@V?$allocator@D@2@@std@@@std@@@?$_Uninitialized_backout_al@V?$allocator@U?$pair@W4FunctionType@detail@data@matlab@@V?$basic_string@DU?$char_traits@D@std@@V?$allocator@D@2@@std@@@std@@@std@@@std@@QEAAXAEBU?$pair@W4FunctionType@detail@data@matlab@@V?$basic_string@DU?$char_traits@D@std@@V?$allocator@D@2@@std@@@1@@Z
	??$_Emplace_back@AEBV?$basic_string@DU?$char_traits@D@std@@V?$allocator@D@2@@std@@@?$_Uninitialized_backout_al@V?$allocator@V?$basic_string@DU?$char_traits@D@std@@V?$allocator@D@2@@std@@@std@@@std@@QEAAXAEBV?$basic_string@DU?$char_traits@D@std@@V?$allocator@D@2@@1@@Z
	??$_Emplace_back@AEBVArray@data@matlab@@@?$_Uninitialized_backout_al@V?$allocator@VArray@data@matlab@@@std@@@std@@QEAAXAEBVArray@data@matlab@@@Z
	??$_Emplace_hint@AEBUIndexEntry@rosbag@@@?$_Tree@V?$_Tset_traits@UIndexEntry@rosbag@@U?$less@UIndexEntry@rosbag@@@std@@V?$allocator@UIndexEntry@rosbag@@@4@$00@std@@@std@@IEAAPEAU?$_Tree_node@UIndexEntry@rosbag@@PEAX@1@QEAU21@AEBUIndexEntry@rosbag@@@Z
	??$_Eqrange@_J@?$_Tree@V?$_Tmap_traits@_JU?$AddTwoIntsRequest_@V?$allocator@X@std@@@simple_msgs@@U?$less@_J@std@@V?$allocator@U?$pair@$$CB_JU?$AddTwoIntsRequest_@V?$allocator@X@std@@@simple_msgs@@@std@@@4@$0A@@std@@@std@@IEBA?AU?$pair@PEAU?$_Tree_node@U?$pair@$$CB_JU?$AddTwoIntsRequest_@V?$allocator@X@std@@@simple_msgs@@@std@@PEAX@std@@PEAU12@@1@AEB_J@Z
	??$_Erase_head@V?$allocator@U?$_Tree_node@U?$pair@$$CBV?$basic_string@DU?$char_traits@D@std@@V?$allocator@D@2@@std@@V12@@std@@PEAX@std@@@std@@@?$_Tree_val@U?$_Tree_simple_types@U?$pair@$$CBV?$basic_string@DU?$char_traits@D@std@@V?$allocator@D@2@@std@@V12@@std@@@std@@@std@@QEAAXAEAV?$allocator@U?$_Tree_node@U?$pair@$$CBV?$basic_string@DU?$char_traits@D@std@@V?$allocator@D@2@@std@@V12@@std@@PEAX@std@@@1@@Z
	??$_Erase_head@V?$allocator@U?$_Tree_node@U?$pair@$$CB_JU?$AddTwoIntsRequest_@V?$allocator@X@std@@@simple_msgs@@@std@@PEAX@std@@@std@@@?$_Tree_val@U?$_Tree_simple_types@U?$pair@$$CB_JU?$AddTwoIntsRequest_@V?$allocator@X@std@@@simple_msgs@@@std@@@std@@@std@@QEAAXAEAV?$allocator@U?$_Tree_node@U?$pair@$$CB_JU?$AddTwoIntsRequest_@V?$allocator@X@std@@@simple_msgs@@@std@@PEAX@std@@@1@@Z
	??$_Erase_head@V?$allocator@U?$_Tree_node@UIndexEntry@rosbag@@PEAX@std@@@std@@@?$_Tree_val@U?$_Tree_simple_types@UIndexEntry@rosbag@@@std@@@std@@QEAAXAEAV?$allocator@U?$_Tree_node@UIndexEntry@rosbag@@PEAX@std@@@1@@Z
	??$_Erase_tree@V?$allocator@U?$_Tree_node@U?$pair@$$CBV?$basic_string@DU?$char_traits@D@std@@V?$allocator@D@2@@std@@V12@@std@@PEAX@std@@@std@@@?$_Tree_val@U?$_Tree_simple_types@U?$pair@$$CBV?$basic_string@DU?$char_traits@D@std@@V?$allocator@D@2@@std@@V12@@std@@@std@@@std@@QEAAXAEAV?$allocator@U?$_Tree_node@U?$pair@$$CBV?$basic_string@DU?$char_traits@D@std@@V?$allocator@D@2@@std@@V12@@std@@PEAX@std@@@1@PEAU?$_Tree_node@U?$pair@$$CBV?$basic_string@DU?$char_traits@D@std@@V?$allocator@D@2@@std@@V12@@std@@PEAX@1@@Z
	??$_Erase_tree@V?$allocator@U?$_Tree_node@U?$pair@$$CB_JU?$AddTwoIntsRequest_@V?$allocator@X@std@@@simple_msgs@@@std@@PEAX@std@@@std@@@?$_Tree_val@U?$_Tree_simple_types@U?$pair@$$CB_JU?$AddTwoIntsRequest_@V?$allocator@X@std@@@simple_msgs@@@std@@@std@@@std@@QEAAXAEAV?$allocator@U?$_Tree_node@U?$pair@$$CB_JU?$AddTwoIntsRequest_@V?$allocator@X@std@@@simple_msgs@@@std@@PEAX@std@@@1@PEAU?$_Tree_node@U?$pair@$$CB_JU?$AddTwoIntsRequest_@V?$allocator@X@std@@@simple_msgs@@@std@@PEAX@1@@Z
	??$_Erase_tree@V?$allocator@U?$_Tree_node@UIndexEntry@rosbag@@PEAX@std@@@std@@@?$_Tree_val@U?$_Tree_simple_types@UIndexEntry@rosbag@@@std@@@std@@QEAAXAEAV?$allocator@U?$_Tree_node@UIndexEntry@rosbag@@PEAX@std@@@1@PEAU?$_Tree_node@UIndexEntry@rosbag@@PEAX@1@@Z
	??$_Erase_tree_and_orphan@V?$allocator@U?$_Tree_node@U?$pair@$$CBV?$basic_string@DU?$char_traits@D@std@@V?$allocator@D@2@@std@@V12@@std@@PEAX@std@@@std@@@?$_Tree_val@U?$_Tree_simple_types@U?$pair@$$CBV?$basic_string@DU?$char_traits@D@std@@V?$allocator@D@2@@std@@V12@@std@@@std@@@std@@QEAAXAEAV?$allocator@U?$_Tree_node@U?$pair@$$CBV?$basic_string@DU?$char_traits@D@std@@V?$allocator@D@2@@std@@V12@@std@@PEAX@std@@@1@PEAU?$_Tree_node@U?$pair@$$CBV?$basic_string@DU?$char_traits@D@std@@V?$allocator@D@2@@std@@V12@@std@@PEAX@1@@Z
	??$_Find@V?$basic_string@DU?$char_traits@D@std@@V?$allocator@D@2@@std@@@?$_Tree@V?$_Tmap_traits@V?$basic_string@DU?$char_traits@D@std@@V?$allocator@D@2@@std@@IU?$less@V?$basic_string@DU?$char_traits@D@std@@V?$allocator@D@2@@std@@@2@V?$allocator@U?$pair@$$CBV?$basic_string@DU?$char_traits@D@std@@V?$allocator@D@2@@std@@I@std@@@2@$0A@@std@@@std@@AEBAPEAU?$_Tree_node@U?$pair@$$CBV?$basic_string@DU?$char_traits@D@std@@V?$allocator@D@2@@std@@I@std@@PEAX@1@AEBV?$basic_string@DU?$char_traits@D@std@@V?$allocator@D@2@@1@@Z
	??$_Find@V?$basic_string@DU?$char_traits@D@std@@V?$allocator@D@2@@std@@@?$_Tree@V?$_Tmap_traits@V?$basic_string@DU?$char_traits@D@std@@V?$allocator@D@2@@std@@PEAVAbstractMetaObjectBase@impl@ros1_class_loader@@U?$less@V?$basic_string@DU?$char_traits@D@std@@V?$allocator@D@2@@std@@@2@V?$allocator@U?$pair@$$CBV?$basic_string@DU?$char_traits@D@std@@V?$allocator@D@2@@std@@PEAVAbstractMetaObjectBase@impl@ros1_class_loader@@@std@@@2@$0A@@std@@@std@@AEBAPEAU?$_Tree_node@U?$pair@$$CBV?$basic_string@DU?$char_traits@D@std@@V?$allocator@D@2@@std@@PEAVAbstractMetaObjectBase@impl@ros1_class_loader@@@std@@PEAX@1@AEBV?$basic_string@DU?$char_traits@D@std@@V?$allocator@D@2@@1@@Z
	??$_Find@V?$map@V?$basic_string@DU?$char_traits@D@std@@V?$allocator@D@2@@std@@V12@U?$less@V?$basic_string@DU?$char_traits@D@std@@V?$allocator@D@2@@std@@@2@V?$allocator@U?$pair@$$CBV?$basic_string@DU?$char_traits@D@std@@V?$allocator@D@2@@std@@V12@@std@@@2@@std@@@?$_Tree@V?$_Tmap_traits@V?$map@V?$basic_string@DU?$char_traits@D@std@@V?$allocator@D@2@@std@@V12@U?$less@V?$basic_string@DU?$char_traits@D@std@@V?$allocator@D@2@@std@@@2@V?$allocator@U?$pair@$$CBV?$basic_string@DU?$char_traits@D@std@@V?$allocator@D@2@@std@@V12@@std@@@2@@std@@IU?$less@V?$map@V?$basic_string@DU?$char_traits@D@std@@V?$allocator@D@2@@std@@V12@U?$less@V?$basic_string@DU?$char_traits@D@std@@V?$allocator@D@2@@std@@@2@V?$allocator@U?$pair@$$CBV?$basic_string@DU?$char_traits@D@std@@V?$allocator@D@2@@std@@V12@@std@@@2@@std@@@2@V?$allocator@U?$pair@$$CBV?$map@V?$basic_string@DU?$char_traits@D@std@@V?$allocator@D@2@@std@@V12@U?$less@V?$basic_string@DU?$char_traits@D@std@@V?$allocator@D@2@@std@@@2@V?$allocator@U?$pair@$$CBV?$basic_string@DU?$char_traits@D@std@@V?$allocator@D@2@@std@@V12@@std@@@2@@std@@I@std@@@2@$0A@@std@@@std@@AEBAPEAU?$_Tree_node@U?$pair@$$CBV?$map@V?$basic_string@DU?$char_traits@D@std@@V?$allocator@D@2@@std@@V12@U?$less@V?$basic_string@DU?$char_traits@D@std@@V?$allocator@D@2@@std@@@2@V?$allocator@U?$pair@$$CBV?$basic_string@DU?$char_traits@D@std@@V?$allocator@D@2@@std@@V12@@std@@@2@@std@@I@std@@PEAX@1@AEBV?$map@V?$basic_string@DU?$char_traits@D@std@@V?$allocator@D@2@@std@@V12@U?$less@V?$basic_string@DU?$char_traits@D@std@@V?$allocator@D@2@@std@@@2@V?$allocator@U?$pair@$$CBV?$basic_string@DU?$char_traits@D@std@@V?$allocator@D@2@@std@@V12@@std@@@2@@1@@Z
	??$_Find@_J@?$_Tree@V?$_Tmap_traits@_JU?$AddTwoIntsRequest_@V?$allocator@X@std@@@simple_msgs@@U?$less@_J@std@@V?$allocator@U?$pair@$$CB_JU?$AddTwoIntsRequest_@V?$allocator@X@std@@@simple_msgs@@@std@@@4@$0A@@std@@@std@@AEBAPEAU?$_Tree_node@U?$pair@$$CB_JU?$AddTwoIntsRequest_@V?$allocator@X@std@@@simple_msgs@@@std@@PEAX@1@AEB_J@Z
	??$_Find_hint@UIndexEntry@rosbag@@@?$_Tree@V?$_Tset_traits@UIndexEntry@rosbag@@U?$less@UIndexEntry@rosbag@@@std@@V?$allocator@UIndexEntry@rosbag@@@4@$00@std@@@std@@IEBA?AU?$_Tree_find_hint_result@PEAU?$_Tree_node@UIndexEntry@rosbag@@PEAX@std@@@1@QEAU?$_Tree_node@UIndexEntry@rosbag@@PEAX@1@AEBUIndexEntry@rosbag@@@Z
	??$_Find_lower_bound@I@?$_Tree@V?$_Tmap_traits@IIU?$less@I@std@@V?$allocator@U?$pair@$$CBII@std@@@2@$0A@@std@@@std@@IEBA?AU?$_Tree_find_result@PEAU?$_Tree_node@U?$pair@$$CBII@std@@PEAX@std@@@1@AEBI@Z
	??$_Find_lower_bound@I@?$_Tree@V?$_Tmap_traits@IPEAUConnectionInfo@rosbag@@U?$less@I@std@@V?$allocator@U?$pair@$$CBIPEAUConnectionInfo@rosbag@@@std@@@4@$0A@@std@@@std@@IEBA?AU?$_Tree_find_result@PEAU?$_Tree_node@U?$pair@$$CBIPEAUConnectionInfo@rosbag@@@std@@PEAX@std@@@1@AEBI@Z
	??$_Find_lower_bound@I@?$_Tree@V?$_Tmap_traits@IV?$multiset@UIndexEntry@rosbag@@U?$less@UIndexEntry@rosbag@@@std@@V?$allocator@UIndexEntry@rosbag@@@4@@std@@U?$less@I@2@V?$allocator@U?$pair@$$CBIV?$multiset@UIndexEntry@rosbag@@U?$less@UIndexEntry@rosbag@@@std@@V?$allocator@UIndexEntry@rosbag@@@4@@std@@@std@@@2@$0A@@std@@@std@@IEBA?AU?$_Tree_find_result@PEAU?$_Tree_node@U?$pair@$$CBIV?$multiset@UIndexEntry@rosbag@@U?$less@UIndexEntry@rosbag@@@std@@V?$allocator@UIndexEntry@rosbag@@@4@@std@@@std@@PEAX@std@@@1@AEBI@Z
	??$_Find_lower_bound@UIndexEntry@rosbag@@@?$_Tree@V?$_Tset_traits@UIndexEntry@rosbag@@U?$less@UIndexEntry@rosbag@@@std@@V?$allocator@UIndexEntry@rosbag@@@4@$00@std@@@std@@IEBA?AU?$_Tree_find_result@PEAU?$_Tree_node@UIndexEntry@rosbag@@PEAX@std@@@1@AEBUIndexEntry@rosbag@@@Z
	??$_Find_lower_bound@V?$basic_string@DU?$char_traits@D@std@@V?$allocator@D@2@@std@@@?$_Tree@V?$_Tmap_traits@V?$basic_string@DU?$char_traits@D@std@@V?$allocator@D@2@@std@@IU?$less@V?$basic_string@DU?$char_traits@D@std@@V?$allocator@D@2@@std@@@2@V?$allocator@U?$pair@$$CBV?$basic_string@DU?$char_traits@D@std@@V?$allocator@D@2@@std@@I@std@@@2@$0A@@std@@@std@@IEBA?AU?$_Tree_find_result@PEAU?$_Tree_node@U?$pair@$$CBV?$basic_string@DU?$char_traits@D@std@@V?$allocator@D@2@@std@@I@std@@PEAX@std@@@1@AEBV?$basic_string@DU?$char_traits@D@std@@V?$allocator@D@2@@1@@Z
	??$_Find_lower_bound@V?$basic_string@DU?$char_traits@D@std@@V?$allocator@D@2@@std@@@?$_Tree@V?$_Tmap_traits@V?$basic_string@DU?$char_traits@D@std@@V?$allocator@D@2@@std@@PEAVAbstractMetaObjectBase@impl@ros1_class_loader@@U?$less@V?$basic_string@DU?$char_traits@D@std@@V?$allocator@D@2@@std@@@2@V?$allocator@U?$pair@$$CBV?$basic_string@DU?$char_traits@D@std@@V?$allocator@D@2@@std@@PEAVAbstractMetaObjectBase@impl@ros1_class_loader@@@std@@@2@$0A@@std@@@std@@IEBA?AU?$_Tree_find_result@PEAU?$_Tree_node@U?$pair@$$CBV?$basic_string@DU?$char_traits@D@std@@V?$allocator@D@2@@std@@PEAVAbstractMetaObjectBase@impl@ros1_class_loader@@@std@@PEAX@std@@@1@AEBV?$basic_string@DU?$char_traits@D@std@@V?$allocator@D@2@@1@@Z
	??$_Find_lower_bound@V?$basic_string@DU?$char_traits@D@std@@V?$allocator@D@2@@std@@@?$_Tree@V?$_Tmap_traits@V?$basic_string@DU?$char_traits@D@std@@V?$allocator@D@2@@std@@V12@U?$less@V?$basic_string@DU?$char_traits@D@std@@V?$allocator@D@2@@std@@@2@V?$allocator@U?$pair@$$CBV?$basic_string@DU?$char_traits@D@std@@V?$allocator@D@2@@std@@V12@@std@@@2@$0A@@std@@@std@@IEBA?AU?$_Tree_find_result@PEAU?$_Tree_node@U?$pair@$$CBV?$basic_string@DU?$char_traits@D@std@@V?$allocator@D@2@@std@@V12@@std@@PEAX@std@@@1@AEBV?$basic_string@DU?$char_traits@D@std@@V?$allocator@D@2@@1@@Z
	??$_Find_lower_bound@V?$map@V?$basic_string@DU?$char_traits@D@std@@V?$allocator@D@2@@std@@V12@U?$less@V?$basic_string@DU?$char_traits@D@std@@V?$allocator@D@2@@std@@@2@V?$allocator@U?$pair@$$CBV?$basic_string@DU?$char_traits@D@std@@V?$allocator@D@2@@std@@V12@@std@@@2@@std@@@?$_Tree@V?$_Tmap_traits@V?$map@V?$basic_string@DU?$char_traits@D@std@@V?$allocator@D@2@@std@@V12@U?$less@V?$basic_string@DU?$char_traits@D@std@@V?$allocator@D@2@@std@@@2@V?$allocator@U?$pair@$$CBV?$basic_string@DU?$char_traits@D@std@@V?$allocator@D@2@@std@@V12@@std@@@2@@std@@IU?$less@V?$map@V?$basic_string@DU?$char_traits@D@std@@V?$allocator@D@2@@std@@V12@U?$less@V?$basic_string@DU?$char_traits@D@std@@V?$allocator@D@2@@std@@@2@V?$allocator@U?$pair@$$CBV?$basic_string@DU?$char_traits@D@std@@V?$allocator@D@2@@std@@V12@@std@@@2@@std@@@2@V?$allocator@U?$pair@$$CBV?$map@V?$basic_string@DU?$char_traits@D@std@@V?$allocator@D@2@@std@@V12@U?$less@V?$basic_string@DU?$char_traits@D@std@@V?$allocator@D@2@@std@@@2@V?$allocator@U?$pair@$$CBV?$basic_string@DU?$char_traits@D@std@@V?$allocator@D@2@@std@@V12@@std@@@2@@std@@I@std@@@2@$0A@@std@@@std@@IEBA?AU?$_Tree_find_result@PEAU?$_Tree_node@U?$pair@$$CBV?$map@V?$basic_string@DU?$char_traits@D@std@@V?$allocator@D@2@@std@@V12@U?$less@V?$basic_string@DU?$char_traits@D@std@@V?$allocator@D@2@@std@@@2@V?$allocator@U?$pair@$$CBV?$basic_string@DU?$char_traits@D@std@@V?$allocator@D@2@@std@@V12@@std@@@2@@std@@I@std@@PEAX@std@@@1@AEBV?$map@V?$basic_string@DU?$char_traits@D@std@@V?$allocator@D@2@@std@@V12@U?$less@V?$basic_string@DU?$char_traits@D@std@@V?$allocator@D@2@@std@@@2@V?$allocator@U?$pair@$$CBV?$basic_string@DU?$char_traits@D@std@@V?$allocator@D@2@@std@@V12@@std@@@2@@1@@Z
	??$_Find_lower_bound@_J@?$_Tree@V?$_Tmap_traits@_JU?$AddTwoIntsRequest_@V?$allocator@X@std@@@simple_msgs@@U?$less@_J@std@@V?$allocator@U?$pair@$$CB_JU?$AddTwoIntsRequest_@V?$allocator@X@std@@@simple_msgs@@@std@@@4@$0A@@std@@@std@@IEBA?AU?$_Tree_find_result@PEAU?$_Tree_node@U?$pair@$$CB_JU?$AddTwoIntsRequest_@V?$allocator@X@std@@@simple_msgs@@@std@@PEAX@std@@@1@AEB_J@Z
	??$_Find_upper_bound@UIndexEntry@rosbag@@@?$_Tree@V?$_Tset_traits@UIndexEntry@rosbag@@U?$less@UIndexEntry@rosbag@@@std@@V?$allocator@UIndexEntry@rosbag@@@4@$00@std@@@std@@IEBA?AU?$_Tree_find_result@PEAU?$_Tree_node@UIndexEntry@rosbag@@PEAX@std@@@1@AEBUIndexEntry@rosbag@@@Z
	??$_Freenode@V?$allocator@U?$_Tree_node@U?$pair@$$CBV?$basic_string@DU?$char_traits@D@std@@V?$allocator@D@2@@std@@V12@@std@@PEAX@std@@@std@@@?$_Tree_node@U?$pair@$$CBV?$basic_string@DU?$char_traits@D@std@@V?$allocator@D@2@@std@@V12@@std@@PEAX@std@@SAXAEAV?$allocator@U?$_Tree_node@U?$pair@$$CBV?$basic_string@DU?$char_traits@D@std@@V?$allocator@D@2@@std@@V12@@std@@PEAX@std@@@1@PEAU01@@Z
	??$_Getvals@_W@?$time_get@DV?$istreambuf_iterator@DU?$char_traits@D@std@@@std@@@std@@IEAAX_WAEBV_Locinfo@1@@Z
	??$_Getvals@_W@?$time_get@_WV?$istreambuf_iterator@_WU?$char_traits@_W@std@@@std@@@std@@IEAAX_WAEBV_Locinfo@1@@Z
	??$_Lex_compare_unchecked@V?$_Tree_unchecked_const_iterator@V?$_Tree_val@U?$_Tree_simple_types@U?$pair@$$CBV?$basic_string@DU?$char_traits@D@std@@V?$allocator@D@2@@std@@V12@@std@@@std@@@std@@U_Iterator_base0@2@@std@@V12@U?$less@X@2@@std@@YA_NV?$_Tree_unchecked_const_iterator@V?$_Tree_val@U?$_Tree_simple_types@U?$pair@$$CBV?$basic_string@DU?$char_traits@D@std@@V?$allocator@D@2@@std@@V12@@std@@@std@@@std@@U_Iterator_base0@2@@0@000U?$less@X@0@U?$_Lex_compare_optimize@X@0@@Z
	??$_Maklocstr@D@std@@YAPEADPEBDPEADAEBU_Cvtvec@@@Z
	??$_Maklocstr@_W@std@@YAPEA_WPEBDPEA_WAEBU_Cvtvec@@@Z
	??$_Range_construct_or_tidy@PEBU?$pair@W4FunctionType@detail@data@matlab@@V?$basic_string@DU?$char_traits@D@std@@V?$allocator@D@2@@std@@@std@@@?$vector@U?$pair@W4FunctionType@detail@data@matlab@@V?$basic_string@DU?$char_traits@D@std@@V?$allocator@D@2@@std@@@std@@V?$allocator@U?$pair@W4FunctionType@detail@data@matlab@@V?$basic_string@DU?$char_traits@D@std@@V?$allocator@D@2@@std@@@std@@@2@@std@@AEAAXPEBU?$pair@W4FunctionType@detail@data@matlab@@V?$basic_string@DU?$char_traits@D@std@@V?$allocator@D@2@@std@@@1@0Uforward_iterator_tag@1@@Z
	??$_Range_construct_or_tidy@PEBV?$basic_string@DU?$char_traits@D@std@@V?$allocator@D@2@@std@@@?$vector@V?$basic_string@DU?$char_traits@D@std@@V?$allocator@D@2@@std@@V?$allocator@V?$basic_string@DU?$char_traits@D@std@@V?$allocator@D@2@@std@@@2@@std@@AEAAXPEBV?$basic_string@DU?$char_traits@D@std@@V?$allocator@D@2@@1@0Uforward_iterator_tag@1@@Z
	??$_Range_construct_or_tidy@PEBVArray@data@matlab@@@?$vector@VArray@data@matlab@@V?$allocator@VArray@data@matlab@@@std@@@std@@AEAAXPEBVArray@data@matlab@@0Uforward_iterator_tag@1@@Z
	??$_Range_construct_or_tidy@PEB_K@?$vector@_KV?$allocator@_K@std@@@std@@AEAAXPEB_K0Uforward_iterator_tag@1@@Z
	??$_Reallocate_for@V<lambda_66f57f934f28d61049862f64df852ff0>@@PEBD@?$basic_string@DU?$char_traits@D@std@@V?$allocator@D@2@@std@@AEAAAEAV01@_KV<lambda_66f57f934f28d61049862f64df852ff0>@@PEBD@Z
	??$_Reallocate_grow_by@V<lambda_65e615be2a453ca0576c979606f46740>@@PEBD_K@?$basic_string@DU?$char_traits@D@std@@V?$allocator@D@2@@std@@AEAAAEAV01@_KV<lambda_65e615be2a453ca0576c979606f46740>@@PEBD_K@Z
	??$_Setpd@PEAVArrayFactoryImpl@impl@data@matlab@@V<lambda_a4c5f97d4391fb4c09103a727c16defd>@@@?$shared_ptr@VArrayFactoryImpl@impl@data@matlab@@@std@@AEAAXQEAVArrayFactoryImpl@impl@data@matlab@@V<lambda_a4c5f97d4391fb4c09103a727c16defd>@@@Z
	??$_Setpd@PEAVArrayImpl@impl@data@matlab@@V<lambda_18bde30140702ba20a566c9dc393b8c0>@@@?$shared_ptr@VArrayImpl@impl@data@matlab@@@std@@AEAAXQEAVArrayImpl@impl@data@matlab@@V<lambda_18bde30140702ba20a566c9dc393b8c0>@@@Z
	??$_Setpd@PEAVArrayImpl@impl@data@matlab@@V<lambda_49bc69670bef5877f460780ec06c4b58>@@@?$shared_ptr@VArrayImpl@impl@data@matlab@@@std@@AEAAXQEAVArrayImpl@impl@data@matlab@@V<lambda_49bc69670bef5877f460780ec06c4b58>@@@Z
	??$_Setpd@PEAVNameListImpl@detail@data@matlab@@V<lambda_9f3a4d0362104a3bede0405fafec76e1>@@@?$shared_ptr@VNameListImpl@detail@data@matlab@@@std@@AEAAXQEAVNameListImpl@detail@data@matlab@@V<lambda_9f3a4d0362104a3bede0405fafec76e1>@@@Z
	??$_Setpd@PEAVReferenceImpl@detail@data@matlab@@V<lambda_2615407b98e1f3a14023b76f0dedc381>@@@?$shared_ptr@VReferenceImpl@detail@data@matlab@@@std@@AEAAXQEAVReferenceImpl@detail@data@matlab@@V<lambda_2615407b98e1f3a14023b76f0dedc381>@@@Z
	??$_Try_emplace@AEBI$$V@?$map@IIU?$less@I@std@@V?$allocator@U?$pair@$$CBII@std@@@2@@std@@AEAA?AU?$pair@PEAU?$_Tree_node@U?$pair@$$CBII@std@@PEAX@std@@_N@1@AEBI@Z
	??$_Try_emplace@AEBI$$V@?$map@IPEAUConnectionInfo@rosbag@@U?$less@I@std@@V?$allocator@U?$pair@$$CBIPEAUConnectionInfo@rosbag@@@std@@@4@@std@@AEAA?AU?$pair@PEAU?$_Tree_node@U?$pair@$$CBIPEAUConnectionInfo@rosbag@@@std@@PEAX@std@@_N@1@AEBI@Z
	??$_Try_emplace@AEBI$$V@?$map@IV?$multiset@UIndexEntry@rosbag@@U?$less@UIndexEntry@rosbag@@@std@@V?$allocator@UIndexEntry@rosbag@@@4@@std@@U?$less@I@2@V?$allocator@U?$pair@$$CBIV?$multiset@UIndexEntry@rosbag@@U?$less@UIndexEntry@rosbag@@@std@@V?$allocator@UIndexEntry@rosbag@@@4@@std@@@std@@@2@@std@@AEAA?AU?$pair@PEAU?$_Tree_node@U?$pair@$$CBIV?$multiset@UIndexEntry@rosbag@@U?$less@UIndexEntry@rosbag@@@std@@V?$allocator@UIndexEntry@rosbag@@@4@@std@@@std@@PEAX@std@@_N@1@AEBI@Z
	??$_Try_emplace@AEBV?$basic_string@DU?$char_traits@D@std@@V?$allocator@D@2@@std@@$$V@?$map@V?$basic_string@DU?$char_traits@D@std@@V?$allocator@D@2@@std@@IU?$less@V?$basic_string@DU?$char_traits@D@std@@V?$allocator@D@2@@std@@@2@V?$allocator@U?$pair@$$CBV?$basic_string@DU?$char_traits@D@std@@V?$allocator@D@2@@std@@I@std@@@2@@std@@AEAA?AU?$pair@PEAU?$_Tree_node@U?$pair@$$CBV?$basic_string@DU?$char_traits@D@std@@V?$allocator@D@2@@std@@I@std@@PEAX@std@@_N@1@AEBV?$basic_string@DU?$char_traits@D@std@@V?$allocator@D@2@@1@@Z
	??$_Try_emplace@AEBV?$basic_string@DU?$char_traits@D@std@@V?$allocator@D@2@@std@@$$V@?$map@V?$basic_string@DU?$char_traits@D@std@@V?$allocator@D@2@@std@@PEAVAbstractMetaObjectBase@impl@ros1_class_loader@@U?$less@V?$basic_string@DU?$char_traits@D@std@@V?$allocator@D@2@@std@@@2@V?$allocator@U?$pair@$$CBV?$basic_string@DU?$char_traits@D@std@@V?$allocator@D@2@@std@@PEAVAbstractMetaObjectBase@impl@ros1_class_loader@@@std@@@2@@std@@AEAA?AU?$pair@PEAU?$_Tree_node@U?$pair@$$CBV?$basic_string@DU?$char_traits@D@std@@V?$allocator@D@2@@std@@PEAVAbstractMetaObjectBase@impl@ros1_class_loader@@@std@@PEAX@std@@_N@1@AEBV?$basic_string@DU?$char_traits@D@std@@V?$allocator@D@2@@1@@Z
	??$_Try_emplace@AEBV?$basic_string@DU?$char_traits@D@std@@V?$allocator@D@2@@std@@$$V@?$map@V?$basic_string@DU?$char_traits@D@std@@V?$allocator@D@2@@std@@V12@U?$less@V?$basic_string@DU?$char_traits@D@std@@V?$allocator@D@2@@std@@@2@V?$allocator@U?$pair@$$CBV?$basic_string@DU?$char_traits@D@std@@V?$allocator@D@2@@std@@V12@@std@@@2@@std@@AEAA?AU?$pair@PEAU?$_Tree_node@U?$pair@$$CBV?$basic_string@DU?$char_traits@D@std@@V?$allocator@D@2@@std@@V12@@std@@PEAX@std@@_N@1@AEBV?$basic_string@DU?$char_traits@D@std@@V?$allocator@D@2@@1@@Z
	??$_Try_emplace@AEBV?$map@V?$basic_string@DU?$char_traits@D@std@@V?$allocator@D@2@@std@@V12@U?$less@V?$basic_string@DU?$char_traits@D@std@@V?$allocator@D@2@@std@@@2@V?$allocator@U?$pair@$$CBV?$basic_string@DU?$char_traits@D@std@@V?$allocator@D@2@@std@@V12@@std@@@2@@std@@$$V@?$map@V?$map@V?$basic_string@DU?$char_traits@D@std@@V?$allocator@D@2@@std@@V12@U?$less@V?$basic_string@DU?$char_traits@D@std@@V?$allocator@D@2@@std@@@2@V?$allocator@U?$pair@$$CBV?$basic_string@DU?$char_traits@D@std@@V?$allocator@D@2@@std@@V12@@std@@@2@@std@@IU?$less@V?$map@V?$basic_string@DU?$char_traits@D@std@@V?$allocator@D@2@@std@@V12@U?$less@V?$basic_string@DU?$char_traits@D@std@@V?$allocator@D@2@@std@@@2@V?$allocator@U?$pair@$$CBV?$basic_string@DU?$char_traits@D@std@@V?$allocator@D@2@@std@@V12@@std@@@2@@std@@@2@V?$allocator@U?$pair@$$CBV?$map@V?$basic_string@DU?$char_traits@D@std@@V?$allocator@D@2@@std@@V12@U?$less@V?$basic_string@DU?$char_traits@D@std@@V?$allocator@D@2@@std@@@2@V?$allocator@U?$pair@$$CBV?$basic_string@DU?$char_traits@D@std@@V?$allocator@D@2@@std@@V12@@std@@@2@@std@@I@std@@@2@@std@@AEAA?AU?$pair@PEAU?$_Tree_node@U?$pair@$$CBV?$map@V?$basic_string@DU?$char_traits@D@std@@V?$allocator@D@2@@std@@V12@U?$less@V?$basic_string@DU?$char_traits@D@std@@V?$allocator@D@2@@std@@@2@V?$allocator@U?$pair@$$CBV?$basic_string@DU?$char_traits@D@std@@V?$allocator@D@2@@std@@V12@@std@@@2@@std@@I@std@@PEAX@std@@_N@1@AEBV?$map@V?$basic_string@DU?$char_traits@D@std@@V?$allocator@D@2@@std@@V12@U?$less@V?$basic_string@DU?$char_traits@D@std@@V?$allocator@D@2@@std@@@2@V?$allocator@U?$pair@$$CBV?$basic_string@DU?$char_traits@D@std@@V?$allocator@D@2@@std@@V12@@std@@@2@@1@@Z
	??$_Try_emplace@V?$basic_string@DU?$char_traits@D@std@@V?$allocator@D@2@@std@@$$V@?$map@V?$basic_string@DU?$char_traits@D@std@@V?$allocator@D@2@@std@@V12@U?$less@V?$basic_string@DU?$char_traits@D@std@@V?$allocator@D@2@@std@@@2@V?$allocator@U?$pair@$$CBV?$basic_string@DU?$char_traits@D@std@@V?$allocator@D@2@@std@@V12@@std@@@2@@std@@AEAA?AU?$pair@PEAU?$_Tree_node@U?$pair@$$CBV?$basic_string@DU?$char_traits@D@std@@V?$allocator@D@2@@std@@V12@@std@@PEAX@std@@_N@1@$$QEAV?$basic_string@DU?$char_traits@D@std@@V?$allocator@D@2@@1@@Z
	??$_Uninitialized_copy@PEBU?$pair@W4FunctionType@detail@data@matlab@@V?$basic_string@DU?$char_traits@D@std@@V?$allocator@D@2@@std@@@std@@V?$allocator@U?$pair@W4FunctionType@detail@data@matlab@@V?$basic_string@DU?$char_traits@D@std@@V?$allocator@D@2@@std@@@std@@@2@@std@@YAPEAU?$pair@W4FunctionType@detail@data@matlab@@V?$basic_string@DU?$char_traits@D@std@@V?$allocator@D@2@@std@@@0@QEBU10@0PEAU10@AEAV?$allocator@U?$pair@W4FunctionType@detail@data@matlab@@V?$basic_string@DU?$char_traits@D@std@@V?$allocator@D@2@@std@@@std@@@0@@Z
	??$_Uninitialized_copy@PEBV?$basic_string@DU?$char_traits@D@std@@V?$allocator@D@2@@std@@V?$allocator@V?$basic_string@DU?$char_traits@D@std@@V?$allocator@D@2@@std@@@2@@std@@YAPEAV?$basic_string@DU?$char_traits@D@std@@V?$allocator@D@2@@0@QEBV10@0PEAV10@AEAV?$allocator@V?$basic_string@DU?$char_traits@D@std@@V?$allocator@D@2@@std@@@0@@Z
	??$_Uninitialized_copy@PEBVArray@data@matlab@@V?$allocator@VArray@data@matlab@@@std@@@std@@YAPEAVArray@data@matlab@@QEBV123@0PEAV123@AEAV?$allocator@VArray@data@matlab@@@0@@Z
	??$_Uninitialized_copy@PEB_KV?$allocator@_K@std@@@std@@YAPEA_KQEB_K0PEA_KAEAV?$allocator@_K@0@@Z
	??$advertise@U?$AddTwoIntsRequest_@V?$allocator@X@std@@@simple_msgs@@@NodeHandle@ros@@QEAA?AVPublisher@1@AEBV?$basic_string@DU?$char_traits@D@std@@V?$allocator@D@2@@std@@I_N@Z
	??$advertise@U?$AddTwoIntsResponse_@V?$allocator@X@std@@@simple_msgs@@@NodeHandle@ros@@QEAA?AVPublisher@1@AEBV?$basic_string@DU?$char_traits@D@std@@V?$allocator@D@2@@std@@I_N@Z
	??$advertise@U?$Num_@V?$allocator@X@std@@@simple_msgs@@@NodeHandle@ros@@QEAA?AVPublisher@1@AEBV?$basic_string@DU?$char_traits@D@std@@V?$allocator@D@2@@std@@I_N@Z
	??$advertiseService@V?$ROSSvcServerImpl@U?$AddTwoIntsRequest_@V?$allocator@X@std@@@simple_msgs@@U?$AddTwoIntsResponse_@V?$allocator@X@std@@@2@Vsimple_msgs_msg_AddTwoIntsRequest_common@@Vsimple_msgs_msg_AddTwoIntsResponse_common@@@@U?$AddTwoIntsRequest_@V?$allocator@X@std@@@simple_msgs@@U?$AddTwoIntsResponse_@V?$allocator@X@std@@@3@@NodeHandle@ros@@QEAA?AVServiceServer@1@AEBV?$basic_string@DU?$char_traits@D@std@@V?$allocator@D@2@@std@@P8?$ROSSvcServerImpl@U?$AddTwoIntsRequest_@V?$allocator@X@std@@@simple_msgs@@U?$AddTwoIntsResponse_@V?$allocator@X@std@@@2@Vsimple_msgs_msg_AddTwoIntsRequest_common@@Vsimple_msgs_msg_AddTwoIntsResponse_common@@@@EAA_NAEAU?$AddTwoIntsRequest_@V?$allocator@X@std@@@simple_msgs@@AEAU?$AddTwoIntsResponse_@V?$allocator@X@std@@@7@@ZPEAV5@@Z
	??$assign_to@P6A?AV?$shared_ptr@U?$AddTwoIntsRequest_@V?$allocator@X@std@@@simple_msgs@@@mwboost@@XZ@?$function0@V?$shared_ptr@U?$AddTwoIntsRequest_@V?$allocator@X@std@@@simple_msgs@@@mwboost@@@mwboost@@AEAAXP6A?AV?$shared_ptr@U?$AddTwoIntsRequest_@V?$allocator@X@std@@@simple_msgs@@@1@XZ@Z
	??$assign_to@P6A?AV?$shared_ptr@U?$AddTwoIntsResponse_@V?$allocator@X@std@@@simple_msgs@@@mwboost@@XZ@?$function0@V?$shared_ptr@U?$AddTwoIntsResponse_@V?$allocator@X@std@@@simple_msgs@@@mwboost@@@mwboost@@AEAAXP6A?AV?$shared_ptr@U?$AddTwoIntsResponse_@V?$allocator@X@std@@@simple_msgs@@@1@XZ@Z
	??$assign_to@U?$DefaultMessageCreator@U?$AddTwoIntsRequest_@V?$allocator@X@std@@@simple_msgs@@@ros@@@?$function0@V?$shared_ptr@U?$AddTwoIntsRequest_@V?$allocator@X@std@@@simple_msgs@@@mwboost@@@mwboost@@AEAAXU?$DefaultMessageCreator@U?$AddTwoIntsRequest_@V?$allocator@X@std@@@simple_msgs@@@ros@@@Z
	??$assign_to@U?$DefaultMessageCreator@U?$AddTwoIntsResponse_@V?$allocator@X@std@@@simple_msgs@@@ros@@@?$function0@V?$shared_ptr@U?$AddTwoIntsResponse_@V?$allocator@X@std@@@simple_msgs@@@mwboost@@@mwboost@@AEAAXU?$DefaultMessageCreator@U?$AddTwoIntsResponse_@V?$allocator@X@std@@@simple_msgs@@@ros@@@Z
	??$assign_to@U?$DefaultMessageCreator@U?$Num_@V?$allocator@X@std@@@simple_msgs@@@ros@@@?$function0@V?$shared_ptr@U?$Num_@V?$allocator@X@std@@@simple_msgs@@@mwboost@@@mwboost@@AEAAXU?$DefaultMessageCreator@U?$Num_@V?$allocator@X@std@@@simple_msgs@@@ros@@@Z
	??$assign_to@V?$bind_t@VSerializedMessage@ros@@P6A?AV12@AEBU?$AddTwoIntsRequest_@V?$allocator@X@std@@@simple_msgs@@@ZV?$list1@V?$reference_wrapper@U?$AddTwoIntsRequest_@V?$allocator@X@std@@@simple_msgs@@@mwboost@@@_bi@mwboost@@@_bi@mwboost@@@?$function0@VSerializedMessage@ros@@@mwboost@@AEAAXV?$bind_t@VSerializedMessage@ros@@P6A?AV12@AEBU?$AddTwoIntsRequest_@V?$allocator@X@std@@@simple_msgs@@@ZV?$list1@V?$reference_wrapper@U?$AddTwoIntsRequest_@V?$allocator@X@std@@@simple_msgs@@@mwboost@@@_bi@mwboost@@@_bi@1@@Z
	??$assign_to@V?$bind_t@VSerializedMessage@ros@@P6A?AV12@AEBU?$AddTwoIntsResponse_@V?$allocator@X@std@@@simple_msgs@@@ZV?$list1@V?$reference_wrapper@U?$AddTwoIntsResponse_@V?$allocator@X@std@@@simple_msgs@@@mwboost@@@_bi@mwboost@@@_bi@mwboost@@@?$function0@VSerializedMessage@ros@@@mwboost@@AEAAXV?$bind_t@VSerializedMessage@ros@@P6A?AV12@AEBU?$AddTwoIntsResponse_@V?$allocator@X@std@@@simple_msgs@@@ZV?$list1@V?$reference_wrapper@U?$AddTwoIntsResponse_@V?$allocator@X@std@@@simple_msgs@@@mwboost@@@_bi@mwboost@@@_bi@1@@Z
	??$assign_to@V?$bind_t@VSerializedMessage@ros@@P6A?AV12@AEBU?$Num_@V?$allocator@X@std@@@simple_msgs@@@ZV?$list1@V?$reference_wrapper@U?$Num_@V?$allocator@X@std@@@simple_msgs@@@mwboost@@@_bi@mwboost@@@_bi@mwboost@@@?$function0@VSerializedMessage@ros@@@mwboost@@AEAAXV?$bind_t@VSerializedMessage@ros@@P6A?AV12@AEBU?$Num_@V?$allocator@X@std@@@simple_msgs@@@ZV?$list1@V?$reference_wrapper@U?$Num_@V?$allocator@X@std@@@simple_msgs@@@mwboost@@@_bi@mwboost@@@_bi@1@@Z
	??$assign_to@V?$bind_t@XV?$mf1@XV?$ROSSubscriberImpl@U?$AddTwoIntsRequest_@V?$allocator@X@std@@@simple_msgs@@V?$shared_ptr@$$CBU?$AddTwoIntsRequest_@V?$allocator@X@std@@@simple_msgs@@@mwboost@@Vsimple_msgs_msg_AddTwoIntsRequest_common@@@@AEBV?$shared_ptr@$$CBU?$AddTwoIntsRequest_@V?$allocator@X@std@@@simple_msgs@@@mwboost@@@_mfi@mwboost@@V?$list2@V?$value@PEAV?$ROSSubscriberImpl@U?$AddTwoIntsRequest_@V?$allocator@X@std@@@simple_msgs@@V?$shared_ptr@$$CBU?$AddTwoIntsRequest_@V?$allocator@X@std@@@simple_msgs@@@mwboost@@Vsimple_msgs_msg_AddTwoIntsRequest_common@@@@@_bi@mwboost@@U?$arg@$00@3@@_bi@3@@_bi@mwboost@@@?$function1@XAEBV?$shared_ptr@$$CBU?$AddTwoIntsRequest_@V?$allocator@X@std@@@simple_msgs@@@mwboost@@@mwboost@@AEAAXV?$bind_t@XV?$mf1@XV?$ROSSubscriberImpl@U?$AddTwoIntsRequest_@V?$allocator@X@std@@@simple_msgs@@V?$shared_ptr@$$CBU?$AddTwoIntsRequest_@V?$allocator@X@std@@@simple_msgs@@@mwboost@@Vsimple_msgs_msg_AddTwoIntsRequest_common@@@@AEBV?$shared_ptr@$$CBU?$AddTwoIntsRequest_@V?$allocator@X@std@@@simple_msgs@@@mwboost@@@_mfi@mwboost@@V?$list2@V?$value@PEAV?$ROSSubscriberImpl@U?$AddTwoIntsRequest_@V?$allocator@X@std@@@simple_msgs@@V?$shared_ptr@$$CBU?$AddTwoIntsRequest_@V?$allocator@X@std@@@simple_msgs@@@mwboost@@Vsimple_msgs_msg_AddTwoIntsRequest_common@@@@@_bi@mwboost@@U?$arg@$00@3@@_bi@3@@_bi@1@@Z
	??$assign_to@V?$bind_t@XV?$mf1@XV?$ROSSubscriberImpl@U?$AddTwoIntsResponse_@V?$allocator@X@std@@@simple_msgs@@V?$shared_ptr@$$CBU?$AddTwoIntsResponse_@V?$allocator@X@std@@@simple_msgs@@@mwboost@@Vsimple_msgs_msg_AddTwoIntsResponse_common@@@@AEBV?$shared_ptr@$$CBU?$AddTwoIntsResponse_@V?$allocator@X@std@@@simple_msgs@@@mwboost@@@_mfi@mwboost@@V?$list2@V?$value@PEAV?$ROSSubscriberImpl@U?$AddTwoIntsResponse_@V?$allocator@X@std@@@simple_msgs@@V?$shared_ptr@$$CBU?$AddTwoIntsResponse_@V?$allocator@X@std@@@simple_msgs@@@mwboost@@Vsimple_msgs_msg_AddTwoIntsResponse_common@@@@@_bi@mwboost@@U?$arg@$00@3@@_bi@3@@_bi@mwboost@@@?$function1@XAEBV?$shared_ptr@$$CBU?$AddTwoIntsResponse_@V?$allocator@X@std@@@simple_msgs@@@mwboost@@@mwboost@@AEAAXV?$bind_t@XV?$mf1@XV?$ROSSubscriberImpl@U?$AddTwoIntsResponse_@V?$allocator@X@std@@@simple_msgs@@V?$shared_ptr@$$CBU?$AddTwoIntsResponse_@V?$allocator@X@std@@@simple_msgs@@@mwboost@@Vsimple_msgs_msg_AddTwoIntsResponse_common@@@@AEBV?$shared_ptr@$$CBU?$AddTwoIntsResponse_@V?$allocator@X@std@@@simple_msgs@@@mwboost@@@_mfi@mwboost@@V?$list2@V?$value@PEAV?$ROSSubscriberImpl@U?$AddTwoIntsResponse_@V?$allocator@X@std@@@simple_msgs@@V?$shared_ptr@$$CBU?$AddTwoIntsResponse_@V?$allocator@X@std@@@simple_msgs@@@mwboost@@Vsimple_msgs_msg_AddTwoIntsResponse_common@@@@@_bi@mwboost@@U?$arg@$00@3@@_bi@3@@_bi@1@@Z
	??$assign_to@V?$bind_t@XV?$mf1@XV?$ROSSubscriberImpl@U?$Num_@V?$allocator@X@std@@@simple_msgs@@V?$shared_ptr@$$CBU?$Num_@V?$allocator@X@std@@@simple_msgs@@@mwboost@@Vsimple_msgs_msg_Num_common@@@@AEBV?$shared_ptr@$$CBU?$Num_@V?$allocator@X@std@@@simple_msgs@@@mwboost@@@_mfi@mwboost@@V?$list2@V?$value@PEAV?$ROSSubscriberImpl@U?$Num_@V?$allocator@X@std@@@simple_msgs@@V?$shared_ptr@$$CBU?$Num_@V?$allocator@X@std@@@simple_msgs@@@mwboost@@Vsimple_msgs_msg_Num_common@@@@@_bi@mwboost@@U?$arg@$00@3@@_bi@3@@_bi@mwboost@@@?$function1@XAEBV?$shared_ptr@$$CBU?$Num_@V?$allocator@X@std@@@simple_msgs@@@mwboost@@@mwboost@@AEAAXV?$bind_t@XV?$mf1@XV?$ROSSubscriberImpl@U?$Num_@V?$allocator@X@std@@@simple_msgs@@V?$shared_ptr@$$CBU?$Num_@V?$allocator@X@std@@@simple_msgs@@@mwboost@@Vsimple_msgs_msg_Num_common@@@@AEBV?$shared_ptr@$$CBU?$Num_@V?$allocator@X@std@@@simple_msgs@@@mwboost@@@_mfi@mwboost@@V?$list2@V?$value@PEAV?$ROSSubscriberImpl@U?$Num_@V?$allocator@X@std@@@simple_msgs@@V?$shared_ptr@$$CBU?$Num_@V?$allocator@X@std@@@simple_msgs@@@mwboost@@Vsimple_msgs_msg_Num_common@@@@@_bi@mwboost@@U?$arg@$00@3@@_bi@3@@_bi@1@@Z
	??$assign_to@V?$bind_t@_NV?$mf2@_NV?$ROSSvcServerImpl@U?$AddTwoIntsRequest_@V?$allocator@X@std@@@simple_msgs@@U?$AddTwoIntsResponse_@V?$allocator@X@std@@@2@Vsimple_msgs_msg_AddTwoIntsRequest_common@@Vsimple_msgs_msg_AddTwoIntsResponse_common@@@@AEAU?$AddTwoIntsRequest_@V?$allocator@X@std@@@simple_msgs@@AEAU?$AddTwoIntsResponse_@V?$allocator@X@std@@@3@@_mfi@mwboost@@V?$list3@V?$value@PEAV?$ROSSvcServerImpl@U?$AddTwoIntsRequest_@V?$allocator@X@std@@@simple_msgs@@U?$AddTwoIntsResponse_@V?$allocator@X@std@@@2@Vsimple_msgs_msg_AddTwoIntsRequest_common@@Vsimple_msgs_msg_AddTwoIntsResponse_common@@@@@_bi@mwboost@@U?$arg@$00@3@U?$arg@$01@3@@_bi@3@@_bi@mwboost@@@?$function2@_NAEAU?$AddTwoIntsRequest_@V?$allocator@X@std@@@simple_msgs@@AEAU?$AddTwoIntsResponse_@V?$allocator@X@std@@@2@@mwboost@@AEAAXV?$bind_t@_NV?$mf2@_NV?$ROSSvcServerImpl@U?$AddTwoIntsRequest_@V?$allocator@X@std@@@simple_msgs@@U?$AddTwoIntsResponse_@V?$allocator@X@std@@@2@Vsimple_msgs_msg_AddTwoIntsRequest_common@@Vsimple_msgs_msg_AddTwoIntsResponse_common@@@@AEAU?$AddTwoIntsRequest_@V?$allocator@X@std@@@simple_msgs@@AEAU?$AddTwoIntsResponse_@V?$allocator@X@std@@@3@@_mfi@mwboost@@V?$list3@V?$value@PEAV?$ROSSvcServerImpl@U?$AddTwoIntsRequest_@V?$allocator@X@std@@@simple_msgs@@U?$AddTwoIntsResponse_@V?$allocator@X@std@@@2@Vsimple_msgs_msg_AddTwoIntsRequest_common@@Vsimple_msgs_msg_AddTwoIntsResponse_common@@@@@_bi@mwboost@@U?$arg@$00@3@U?$arg@$01@3@@_bi@3@@_bi@1@@Z
	??$assign_to@V?$function@$$A6AXAEBV?$shared_ptr@$$CBU?$AddTwoIntsRequest_@V?$allocator@X@std@@@simple_msgs@@@mwboost@@@Z@mwboost@@@?$basic_vtable1@XV?$shared_ptr@$$CBU?$AddTwoIntsRequest_@V?$allocator@X@std@@@simple_msgs@@@mwboost@@@function@detail@mwboost@@AEBA_NV?$function@$$A6AXAEBV?$shared_ptr@$$CBU?$AddTwoIntsRequest_@V?$allocator@X@std@@@simple_msgs@@@mwboost@@@Z@3@AEATfunction_buffer@123@Ufunction_obj_tag@123@@Z
	??$assign_to@V?$function@$$A6AXAEBV?$shared_ptr@$$CBU?$AddTwoIntsRequest_@V?$allocator@X@std@@@simple_msgs@@@mwboost@@@Z@mwboost@@@?$function1@XV?$shared_ptr@$$CBU?$AddTwoIntsRequest_@V?$allocator@X@std@@@simple_msgs@@@mwboost@@@mwboost@@AEAAXV?$function@$$A6AXAEBV?$shared_ptr@$$CBU?$AddTwoIntsRequest_@V?$allocator@X@std@@@simple_msgs@@@mwboost@@@Z@1@@Z
	??$assign_to@V?$function@$$A6AXAEBV?$shared_ptr@$$CBU?$AddTwoIntsResponse_@V?$allocator@X@std@@@simple_msgs@@@mwboost@@@Z@mwboost@@@?$basic_vtable1@XV?$shared_ptr@$$CBU?$AddTwoIntsResponse_@V?$allocator@X@std@@@simple_msgs@@@mwboost@@@function@detail@mwboost@@AEBA_NV?$function@$$A6AXAEBV?$shared_ptr@$$CBU?$AddTwoIntsResponse_@V?$allocator@X@std@@@simple_msgs@@@mwboost@@@Z@3@AEATfunction_buffer@123@Ufunction_obj_tag@123@@Z
	??$assign_to@V?$function@$$A6AXAEBV?$shared_ptr@$$CBU?$AddTwoIntsResponse_@V?$allocator@X@std@@@simple_msgs@@@mwboost@@@Z@mwboost@@@?$function1@XV?$shared_ptr@$$CBU?$AddTwoIntsResponse_@V?$allocator@X@std@@@simple_msgs@@@mwboost@@@mwboost@@AEAAXV?$function@$$A6AXAEBV?$shared_ptr@$$CBU?$AddTwoIntsResponse_@V?$allocator@X@std@@@simple_msgs@@@mwboost@@@Z@1@@Z
	??$assign_to@V?$function@$$A6AXAEBV?$shared_ptr@$$CBU?$Num_@V?$allocator@X@std@@@simple_msgs@@@mwboost@@@Z@mwboost@@@?$basic_vtable1@XV?$shared_ptr@$$CBU?$Num_@V?$allocator@X@std@@@simple_msgs@@@mwboost@@@function@detail@mwboost@@AEBA_NV?$function@$$A6AXAEBV?$shared_ptr@$$CBU?$Num_@V?$allocator@X@std@@@simple_msgs@@@mwboost@@@Z@3@AEATfunction_buffer@123@Ufunction_obj_tag@123@@Z
	??$assign_to@V?$function@$$A6AXAEBV?$shared_ptr@$$CBU?$Num_@V?$allocator@X@std@@@simple_msgs@@@mwboost@@@Z@mwboost@@@?$function1@XV?$shared_ptr@$$CBU?$Num_@V?$allocator@X@std@@@simple_msgs@@@mwboost@@@mwboost@@AEAAXV?$function@$$A6AXAEBV?$shared_ptr@$$CBU?$Num_@V?$allocator@X@std@@@simple_msgs@@@mwboost@@@Z@1@@Z
	??$bind@VSerializedMessage@ros@@AEBU?$AddTwoIntsRequest_@V?$allocator@X@std@@@simple_msgs@@V?$reference_wrapper@U?$AddTwoIntsRequest_@V?$allocator@X@std@@@simple_msgs@@@mwboost@@@mwboost@@YA?AV?$bind_t@VSerializedMessage@ros@@P6A?AV12@AEBU?$AddTwoIntsRequest_@V?$allocator@X@std@@@simple_msgs@@@ZV?$list1@V?$reference_wrapper@U?$AddTwoIntsRequest_@V?$allocator@X@std@@@simple_msgs@@@mwboost@@@_bi@mwboost@@@_bi@0@P6A?AVSerializedMessage@ros@@AEBU?$AddTwoIntsRequest_@V?$allocator@X@std@@@simple_msgs@@@ZV?$reference_wrapper@U?$AddTwoIntsRequest_@V?$allocator@X@std@@@simple_msgs@@@0@@Z
	??$bind@VSerializedMessage@ros@@AEBU?$AddTwoIntsResponse_@V?$allocator@X@std@@@simple_msgs@@V?$reference_wrapper@U?$AddTwoIntsResponse_@V?$allocator@X@std@@@simple_msgs@@@mwboost@@@mwboost@@YA?AV?$bind_t@VSerializedMessage@ros@@P6A?AV12@AEBU?$AddTwoIntsResponse_@V?$allocator@X@std@@@simple_msgs@@@ZV?$list1@V?$reference_wrapper@U?$AddTwoIntsResponse_@V?$allocator@X@std@@@simple_msgs@@@mwboost@@@_bi@mwboost@@@_bi@0@P6A?AVSerializedMessage@ros@@AEBU?$AddTwoIntsResponse_@V?$allocator@X@std@@@simple_msgs@@@ZV?$reference_wrapper@U?$AddTwoIntsResponse_@V?$allocator@X@std@@@simple_msgs@@@0@@Z
	??$bind@VSerializedMessage@ros@@AEBU?$Num_@V?$allocator@X@std@@@simple_msgs@@V?$reference_wrapper@U?$Num_@V?$allocator@X@std@@@simple_msgs@@@mwboost@@@mwboost@@YA?AV?$bind_t@VSerializedMessage@ros@@P6A?AV12@AEBU?$Num_@V?$allocator@X@std@@@simple_msgs@@@ZV?$list1@V?$reference_wrapper@U?$Num_@V?$allocator@X@std@@@simple_msgs@@@mwboost@@@_bi@mwboost@@@_bi@0@P6A?AVSerializedMessage@ros@@AEBU?$Num_@V?$allocator@X@std@@@simple_msgs@@@ZV?$reference_wrapper@U?$Num_@V?$allocator@X@std@@@simple_msgs@@@0@@Z
	??$bind@XV?$ROSSubscriberImpl@U?$AddTwoIntsRequest_@V?$allocator@X@std@@@simple_msgs@@V?$shared_ptr@$$CBU?$AddTwoIntsRequest_@V?$allocator@X@std@@@simple_msgs@@@mwboost@@Vsimple_msgs_msg_AddTwoIntsRequest_common@@@@AEBV?$shared_ptr@$$CBU?$AddTwoIntsRequest_@V?$allocator@X@std@@@simple_msgs@@@mwboost@@PEAV1@U?$arg@$00@3@@mwboost@@YA?AV?$bind_t@XV?$mf1@XV?$ROSSubscriberImpl@U?$AddTwoIntsRequest_@V?$allocator@X@std@@@simple_msgs@@V?$shared_ptr@$$CBU?$AddTwoIntsRequest_@V?$allocator@X@std@@@simple_msgs@@@mwboost@@Vsimple_msgs_msg_AddTwoIntsRequest_common@@@@AEBV?$shared_ptr@$$CBU?$AddTwoIntsRequest_@V?$allocator@X@std@@@simple_msgs@@@mwboost@@@_mfi@mwboost@@V?$list2@V?$value@PEAV?$ROSSubscriberImpl@U?$AddTwoIntsRequest_@V?$allocator@X@std@@@simple_msgs@@V?$shared_ptr@$$CBU?$AddTwoIntsRequest_@V?$allocator@X@std@@@simple_msgs@@@mwboost@@Vsimple_msgs_msg_AddTwoIntsRequest_common@@@@@_bi@mwboost@@U?$arg@$00@3@@_bi@3@@_bi@0@P8?$ROSSubscriberImpl@U?$AddTwoIntsRequest_@V?$allocator@X@std@@@simple_msgs@@V?$shared_ptr@$$CBU?$AddTwoIntsRequest_@V?$allocator@X@std@@@simple_msgs@@@mwboost@@Vsimple_msgs_msg_AddTwoIntsRequest_common@@@@EAAXAEBV?$shared_ptr@$$CBU?$AddTwoIntsRequest_@V?$allocator@X@std@@@simple_msgs@@@0@@ZPEAV3@U?$arg@$00@0@@Z
	??$bind@XV?$ROSSubscriberImpl@U?$AddTwoIntsResponse_@V?$allocator@X@std@@@simple_msgs@@V?$shared_ptr@$$CBU?$AddTwoIntsResponse_@V?$allocator@X@std@@@simple_msgs@@@mwboost@@Vsimple_msgs_msg_AddTwoIntsResponse_common@@@@AEBV?$shared_ptr@$$CBU?$AddTwoIntsResponse_@V?$allocator@X@std@@@simple_msgs@@@mwboost@@PEAV1@U?$arg@$00@3@@mwboost@@YA?AV?$bind_t@XV?$mf1@XV?$ROSSubscriberImpl@U?$AddTwoIntsResponse_@V?$allocator@X@std@@@simple_msgs@@V?$shared_ptr@$$CBU?$AddTwoIntsResponse_@V?$allocator@X@std@@@simple_msgs@@@mwboost@@Vsimple_msgs_msg_AddTwoIntsResponse_common@@@@AEBV?$shared_ptr@$$CBU?$AddTwoIntsResponse_@V?$allocator@X@std@@@simple_msgs@@@mwboost@@@_mfi@mwboost@@V?$list2@V?$value@PEAV?$ROSSubscriberImpl@U?$AddTwoIntsResponse_@V?$allocator@X@std@@@simple_msgs@@V?$shared_ptr@$$CBU?$AddTwoIntsResponse_@V?$allocator@X@std@@@simple_msgs@@@mwboost@@Vsimple_msgs_msg_AddTwoIntsResponse_common@@@@@_bi@mwboost@@U?$arg@$00@3@@_bi@3@@_bi@0@P8?$ROSSubscriberImpl@U?$AddTwoIntsResponse_@V?$allocator@X@std@@@simple_msgs@@V?$shared_ptr@$$CBU?$AddTwoIntsResponse_@V?$allocator@X@std@@@simple_msgs@@@mwboost@@Vsimple_msgs_msg_AddTwoIntsResponse_common@@@@EAAXAEBV?$shared_ptr@$$CBU?$AddTwoIntsResponse_@V?$allocator@X@std@@@simple_msgs@@@0@@ZPEAV3@U?$arg@$00@0@@Z
	??$bind@XV?$ROSSubscriberImpl@U?$Num_@V?$allocator@X@std@@@simple_msgs@@V?$shared_ptr@$$CBU?$Num_@V?$allocator@X@std@@@simple_msgs@@@mwboost@@Vsimple_msgs_msg_Num_common@@@@AEBV?$shared_ptr@$$CBU?$Num_@V?$allocator@X@std@@@simple_msgs@@@mwboost@@PEAV1@U?$arg@$00@3@@mwboost@@YA?AV?$bind_t@XV?$mf1@XV?$ROSSubscriberImpl@U?$Num_@V?$allocator@X@std@@@simple_msgs@@V?$shared_ptr@$$CBU?$Num_@V?$allocator@X@std@@@simple_msgs@@@mwboost@@Vsimple_msgs_msg_Num_common@@@@AEBV?$shared_ptr@$$CBU?$Num_@V?$allocator@X@std@@@simple_msgs@@@mwboost@@@_mfi@mwboost@@V?$list2@V?$value@PEAV?$ROSSubscriberImpl@U?$Num_@V?$allocator@X@std@@@simple_msgs@@V?$shared_ptr@$$CBU?$Num_@V?$allocator@X@std@@@simple_msgs@@@mwboost@@Vsimple_msgs_msg_Num_common@@@@@_bi@mwboost@@U?$arg@$00@3@@_bi@3@@_bi@0@P8?$ROSSubscriberImpl@U?$Num_@V?$allocator@X@std@@@simple_msgs@@V?$shared_ptr@$$CBU?$Num_@V?$allocator@X@std@@@simple_msgs@@@mwboost@@Vsimple_msgs_msg_Num_common@@@@EAAXAEBV?$shared_ptr@$$CBU?$Num_@V?$allocator@X@std@@@simple_msgs@@@0@@ZPEAV3@U?$arg@$00@0@@Z
	??$bind@_NV?$ROSSvcServerImpl@U?$AddTwoIntsRequest_@V?$allocator@X@std@@@simple_msgs@@U?$AddTwoIntsResponse_@V?$allocator@X@std@@@2@Vsimple_msgs_msg_AddTwoIntsRequest_common@@Vsimple_msgs_msg_AddTwoIntsResponse_common@@@@AEAU?$AddTwoIntsRequest_@V?$allocator@X@std@@@simple_msgs@@AEAU?$AddTwoIntsResponse_@V?$allocator@X@std@@@3@PEAV1@U?$arg@$00@mwboost@@U?$arg@$01@6@@mwboost@@YA?AV?$bind_t@_NV?$mf2@_NV?$ROSSvcServerImpl@U?$AddTwoIntsRequest_@V?$allocator@X@std@@@simple_msgs@@U?$AddTwoIntsResponse_@V?$allocator@X@std@@@2@Vsimple_msgs_msg_AddTwoIntsRequest_common@@Vsimple_msgs_msg_AddTwoIntsResponse_common@@@@AEAU?$AddTwoIntsRequest_@V?$allocator@X@std@@@simple_msgs@@AEAU?$AddTwoIntsResponse_@V?$allocator@X@std@@@3@@_mfi@mwboost@@V?$list3@V?$value@PEAV?$ROSSvcServerImpl@U?$AddTwoIntsRequest_@V?$allocator@X@std@@@simple_msgs@@U?$AddTwoIntsResponse_@V?$allocator@X@std@@@2@Vsimple_msgs_msg_AddTwoIntsRequest_common@@Vsimple_msgs_msg_AddTwoIntsResponse_common@@@@@_bi@mwboost@@U?$arg@$00@3@U?$arg@$01@3@@_bi@3@@_bi@0@P8?$ROSSvcServerImpl@U?$AddTwoIntsRequest_@V?$allocator@X@std@@@simple_msgs@@U?$AddTwoIntsResponse_@V?$allocator@X@std@@@2@Vsimple_msgs_msg_AddTwoIntsRequest_common@@Vsimple_msgs_msg_AddTwoIntsResponse_common@@@@EAA_NAEAU?$AddTwoIntsRequest_@V?$allocator@X@std@@@simple_msgs@@AEAU?$AddTwoIntsResponse_@V?$allocator@X@std@@@5@@ZPEAV3@U?$arg@$00@0@U?$arg@$01@0@@Z
	??$call@U?$AddTwoIntsRequest_@V?$allocator@X@std@@@simple_msgs@@U?$AddTwoIntsResponse_@V?$allocator@X@std@@@2@@ServiceClient@ros@@QEAA_NAEBU?$AddTwoIntsRequest_@V?$allocator@X@std@@@simple_msgs@@AEAU?$AddTwoIntsResponse_@V?$allocator@X@std@@@3@AEBV?$basic_string@DU?$char_traits@D@std@@V?$allocator@D@2@@std@@@Z
	??$call@UAddTwoInts@simple_msgs@@@ServiceClient@ros@@QEAA_NAEAUAddTwoInts@simple_msgs@@@Z
	??$castTo@V?$TypedArray@_J@data@matlab@@$00@detail@data@matlab@@YA?AV?$TypedArray@_J@12@V?$shared_ptr@VReferenceImpl@detail@data@matlab@@@std@@@Z
	??$checked_delete@V?$clone_impl@Ubad_alloc_@exception_detail@mwboost@@@exception_detail@mwboost@@@mwboost@@YAXPEAV?$clone_impl@Ubad_alloc_@exception_detail@mwboost@@@exception_detail@0@@Z
	??$checked_delete@V?$clone_impl@Ubad_exception_@exception_detail@mwboost@@@exception_detail@mwboost@@@mwboost@@YAXPEAV?$clone_impl@Ubad_exception_@exception_detail@mwboost@@@exception_detail@0@@Z
	??$const_pointer_cast@U?$AddTwoIntsRequest_@V?$allocator@X@std@@@simple_msgs@@$$CBU12@@mwboost@@YA?AV?$shared_ptr@U?$AddTwoIntsRequest_@V?$allocator@X@std@@@simple_msgs@@@0@$$QEAV?$shared_ptr@$$CBU?$AddTwoIntsRequest_@V?$allocator@X@std@@@simple_msgs@@@0@@Z
	??$const_pointer_cast@U?$AddTwoIntsRequest_@V?$allocator@X@std@@@simple_msgs@@$$CBU12@@mwboost@@YA?AV?$shared_ptr@U?$AddTwoIntsRequest_@V?$allocator@X@std@@@simple_msgs@@@0@AEBV?$shared_ptr@$$CBU?$AddTwoIntsRequest_@V?$allocator@X@std@@@simple_msgs@@@0@@Z
	??$const_pointer_cast@U?$AddTwoIntsResponse_@V?$allocator@X@std@@@simple_msgs@@$$CBU12@@mwboost@@YA?AV?$shared_ptr@U?$AddTwoIntsResponse_@V?$allocator@X@std@@@simple_msgs@@@0@$$QEAV?$shared_ptr@$$CBU?$AddTwoIntsResponse_@V?$allocator@X@std@@@simple_msgs@@@0@@Z
	??$const_pointer_cast@U?$AddTwoIntsResponse_@V?$allocator@X@std@@@simple_msgs@@$$CBU12@@mwboost@@YA?AV?$shared_ptr@U?$AddTwoIntsResponse_@V?$allocator@X@std@@@simple_msgs@@@0@AEBV?$shared_ptr@$$CBU?$AddTwoIntsResponse_@V?$allocator@X@std@@@simple_msgs@@@0@@Z
	??$const_pointer_cast@U?$Num_@V?$allocator@X@std@@@simple_msgs@@$$CBU12@@mwboost@@YA?AV?$shared_ptr@U?$Num_@V?$allocator@X@std@@@simple_msgs@@@0@$$QEAV?$shared_ptr@$$CBU?$Num_@V?$allocator@X@std@@@simple_msgs@@@0@@Z
	??$const_pointer_cast@U?$Num_@V?$allocator@X@std@@@simple_msgs@@$$CBU12@@mwboost@@YA?AV?$shared_ptr@U?$Num_@V?$allocator@X@std@@@simple_msgs@@@0@AEBV?$shared_ptr@$$CBU?$Num_@V?$allocator@X@std@@@simple_msgs@@@0@@Z
	??$const_pointer_cast@X$$CBX@mwboost@@YA?AV?$shared_ptr@X@0@AEBV?$shared_ptr@$$CBX@0@@Z
	??$copyMessageIfNecessary@$$CBU?$AddTwoIntsRequest_@V?$allocator@X@std@@@simple_msgs@@@?$MessageEvent@$$CBU?$AddTwoIntsRequest_@V?$allocator@X@std@@@simple_msgs@@@ros@@AEBA?AV?$shared_ptr@$$CBU?$AddTwoIntsRequest_@V?$allocator@X@std@@@simple_msgs@@@mwboost@@XZ
	??$copyMessageIfNecessary@$$CBU?$AddTwoIntsResponse_@V?$allocator@X@std@@@simple_msgs@@@?$MessageEvent@$$CBU?$AddTwoIntsResponse_@V?$allocator@X@std@@@simple_msgs@@@ros@@AEBA?AV?$shared_ptr@$$CBU?$AddTwoIntsResponse_@V?$allocator@X@std@@@simple_msgs@@@mwboost@@XZ
	??$copyMessageIfNecessary@$$CBU?$Num_@V?$allocator@X@std@@@simple_msgs@@@?$MessageEvent@$$CBU?$Num_@V?$allocator@X@std@@@simple_msgs@@@ros@@AEBA?AV?$shared_ptr@$$CBU?$Num_@V?$allocator@X@std@@@simple_msgs@@@mwboost@@XZ
	??$copyMessageIfNecessary@$$CBX@?$MessageEvent@$$CBX@ros@@AEBA?AV?$shared_ptr@$$CBX@mwboost@@XZ
	??$createObj@V?$ArrayElementTypedRef@VArray@data@matlab@@$00@data@matlab@@VReferenceImpl@detail@23@@Access@detail@data@matlab@@SA?AV?$ArrayElementTypedRef@VArray@data@matlab@@$00@23@V?$shared_ptr@VReferenceImpl@detail@data@matlab@@@std@@@Z
	??$createObj@V?$ArrayElementTypedRef@VArray@data@matlab@@$0A@@data@matlab@@VReferenceImpl@detail@23@@Access@detail@data@matlab@@SA?AV?$ArrayElementTypedRef@VArray@data@matlab@@$0A@@23@V?$shared_ptr@VReferenceImpl@detail@data@matlab@@@std@@@Z
	??$createObj@VStruct@data@matlab@@VReferenceImpl@detail@23@@Access@detail@data@matlab@@SA?AVStruct@23@V?$shared_ptr@VReferenceImpl@detail@data@matlab@@@std@@@Z
	??$createScalar@_J@ArrayFactory@data@matlab@@QEAA?AV?$TypedArray@_J@12@_J@Z
	??$defaultServiceCreateFunction@U?$AddTwoIntsRequest_@V?$allocator@X@std@@@simple_msgs@@@ros@@YA?AV?$shared_ptr@U?$AddTwoIntsRequest_@V?$allocator@X@std@@@simple_msgs@@@mwboost@@XZ
	??$defaultServiceCreateFunction@U?$AddTwoIntsResponse_@V?$allocator@X@std@@@simple_msgs@@@ros@@YA?AV?$shared_ptr@U?$AddTwoIntsResponse_@V?$allocator@X@std@@@simple_msgs@@@mwboost@@XZ
	??$deserialize@U?$AddTwoIntsRequest_@V?$allocator@X@std@@@simple_msgs@@UIStream@serialization@ros@@@serialization@ros@@YAXAEAUIStream@01@AEAU?$AddTwoIntsRequest_@V?$allocator@X@std@@@simple_msgs@@@Z
	??$deserializeMessage@U?$AddTwoIntsRequest_@V?$allocator@X@std@@@simple_msgs@@@serialization@ros@@YAXAEBVSerializedMessage@1@AEAU?$AddTwoIntsRequest_@V?$allocator@X@std@@@simple_msgs@@@Z
	??$deserializeMessage@U?$AddTwoIntsResponse_@V?$allocator@X@std@@@simple_msgs@@@serialization@ros@@YAXAEBVSerializedMessage@1@AEAU?$AddTwoIntsResponse_@V?$allocator@X@std@@@simple_msgs@@@Z
	??$distance@V?$_Tree_unchecked_const_iterator@V?$_Tree_val@U?$_Tree_simple_types@U?$pair@$$CB_JU?$AddTwoIntsRequest_@V?$allocator@X@std@@@simple_msgs@@@std@@@std@@@std@@U_Iterator_base0@2@@std@@@std@@YA_JV?$_Tree_unchecked_const_iterator@V?$_Tree_val@U?$_Tree_simple_types@U?$pair@$$CB_JU?$AddTwoIntsRequest_@V?$allocator@X@std@@@simple_msgs@@@std@@@std@@@std@@U_Iterator_base0@2@@0@0@Z
	??$doWrite@U?$AddTwoIntsRequest_@V?$allocator@X@std@@@simple_msgs@@@Bag@rosbag@@AEAAXAEBV?$basic_string@DU?$char_traits@D@std@@V?$allocator@D@2@@std@@AEBVTime@ros@@AEBU?$AddTwoIntsRequest_@V?$allocator@X@std@@@simple_msgs@@AEBV?$shared_ptr@V?$map@V?$basic_string@DU?$char_traits@D@std@@V?$allocator@D@2@@std@@V12@U?$less@V?$basic_string@DU?$char_traits@D@std@@V?$allocator@D@2@@std@@@2@V?$allocator@U?$pair@$$CBV?$basic_string@DU?$char_traits@D@std@@V?$allocator@D@2@@std@@V12@@std@@@2@@std@@@mwboost@@@Z
	??$doWrite@U?$AddTwoIntsResponse_@V?$allocator@X@std@@@simple_msgs@@@Bag@rosbag@@AEAAXAEBV?$basic_string@DU?$char_traits@D@std@@V?$allocator@D@2@@std@@AEBVTime@ros@@AEBU?$AddTwoIntsResponse_@V?$allocator@X@std@@@simple_msgs@@AEBV?$shared_ptr@V?$map@V?$basic_string@DU?$char_traits@D@std@@V?$allocator@D@2@@std@@V12@U?$less@V?$basic_string@DU?$char_traits@D@std@@V?$allocator@D@2@@std@@@2@V?$allocator@U?$pair@$$CBV?$basic_string@DU?$char_traits@D@std@@V?$allocator@D@2@@std@@V12@@std@@@2@@std@@@mwboost@@@Z
	??$doWrite@U?$Num_@V?$allocator@X@std@@@simple_msgs@@@Bag@rosbag@@AEAAXAEBV?$basic_string@DU?$char_traits@D@std@@V?$allocator@D@2@@std@@AEBVTime@ros@@AEBU?$Num_@V?$allocator@X@std@@@simple_msgs@@AEBV?$shared_ptr@V?$map@V?$basic_string@DU?$char_traits@D@std@@V?$allocator@D@2@@std@@V12@U?$less@V?$basic_string@DU?$char_traits@D@std@@V?$allocator@D@2@@std@@@2@V?$allocator@U?$pair@$$CBV?$basic_string@DU?$char_traits@D@std@@V?$allocator@D@2@@std@@V12@@std@@@2@@std@@@mwboost@@@Z
	??$find_if@V?$_String_const_iterator@V?$_String_val@U?$_Simple_types@D@std@@@std@@@std@@V<lambda_9af1022c29514f862ee55749a69d7ee5>@@@std@@YA?AV?$_String_const_iterator@V?$_String_val@U?$_Simple_types@D@std@@@std@@@0@V10@V10@V<lambda_9af1022c29514f862ee55749a69d7ee5>@@@Z
	??$find_if@V?$reverse_iterator@V?$_Vector_const_iterator@V?$_Vector_val@U?$_Simple_types@U?$pair@W4FunctionType@detail@data@matlab@@V?$basic_string@DU?$char_traits@D@std@@V?$allocator@D@2@@std@@@std@@@std@@@std@@@std@@@std@@V<lambda_0f370ae65f102ac7a82bad354932aaa4>@@@std@@YA?AV?$reverse_iterator@V?$_Vector_const_iterator@V?$_Vector_val@U?$_Simple_types@U?$pair@W4FunctionType@detail@data@matlab@@V?$basic_string@DU?$char_traits@D@std@@V?$allocator@D@2@@std@@@std@@@std@@@std@@@std@@@0@V10@V10@V<lambda_0f370ae65f102ac7a82bad354932aaa4>@@@Z
	??$find_if@V?$reverse_iterator@V?$_Vector_const_iterator@V?$_Vector_val@U?$_Simple_types@U?$pair@W4FunctionType@detail@data@matlab@@V?$basic_string@DU?$char_traits@D@std@@V?$allocator@D@2@@std@@@std@@@std@@@std@@@std@@@std@@V<lambda_176c21c6905cf270b75ba66e243bfeb4>@@@std@@YA?AV?$reverse_iterator@V?$_Vector_const_iterator@V?$_Vector_val@U?$_Simple_types@U?$pair@W4FunctionType@detail@data@matlab@@V?$basic_string@DU?$char_traits@D@std@@V?$allocator@D@2@@std@@@std@@@std@@@std@@@std@@@0@V10@V10@V<lambda_176c21c6905cf270b75ba66e243bfeb4>@@@Z
	??$find_if@V?$reverse_iterator@V?$_Vector_const_iterator@V?$_Vector_val@U?$_Simple_types@U?$pair@W4FunctionType@detail@data@matlab@@V?$basic_string@DU?$char_traits@D@std@@V?$allocator@D@2@@std@@@std@@@std@@@std@@@std@@@std@@V<lambda_269f37e20f44d03140f9167e6568acef>@@@std@@YA?AV?$reverse_iterator@V?$_Vector_const_iterator@V?$_Vector_val@U?$_Simple_types@U?$pair@W4FunctionType@detail@data@matlab@@V?$basic_string@DU?$char_traits@D@std@@V?$allocator@D@2@@std@@@std@@@std@@@std@@@std@@@0@V10@V10@V<lambda_269f37e20f44d03140f9167e6568acef>@@@Z
	??$find_if@V?$reverse_iterator@V?$_Vector_const_iterator@V?$_Vector_val@U?$_Simple_types@U?$pair@W4FunctionType@detail@data@matlab@@V?$basic_string@DU?$char_traits@D@std@@V?$allocator@D@2@@std@@@std@@@std@@@std@@@std@@@std@@V<lambda_4f43e8ce25aa75a6d852dcaacaa3ec2b>@@@std@@YA?AV?$reverse_iterator@V?$_Vector_const_iterator@V?$_Vector_val@U?$_Simple_types@U?$pair@W4FunctionType@detail@data@matlab@@V?$basic_string@DU?$char_traits@D@std@@V?$allocator@D@2@@std@@@std@@@std@@@std@@@std@@@0@V10@V10@V<lambda_4f43e8ce25aa75a6d852dcaacaa3ec2b>@@@Z
	??$find_if@V?$reverse_iterator@V?$_Vector_const_iterator@V?$_Vector_val@U?$_Simple_types@U?$pair@W4FunctionType@detail@data@matlab@@V?$basic_string@DU?$char_traits@D@std@@V?$allocator@D@2@@std@@@std@@@std@@@std@@@std@@@std@@V<lambda_55961c2b940488b1a47869efee919f7a>@@@std@@YA?AV?$reverse_iterator@V?$_Vector_const_iterator@V?$_Vector_val@U?$_Simple_types@U?$pair@W4FunctionType@detail@data@matlab@@V?$basic_string@DU?$char_traits@D@std@@V?$allocator@D@2@@std@@@std@@@std@@@std@@@std@@@0@V10@V10@V<lambda_55961c2b940488b1a47869efee919f7a>@@@Z
	??$find_if@V?$reverse_iterator@V?$_Vector_const_iterator@V?$_Vector_val@U?$_Simple_types@U?$pair@W4FunctionType@detail@data@matlab@@V?$basic_string@DU?$char_traits@D@std@@V?$allocator@D@2@@std@@@std@@@std@@@std@@@std@@@std@@V<lambda_5a3da967fa0b3d738ad6bdefe7e809b1>@@@std@@YA?AV?$reverse_iterator@V?$_Vector_const_iterator@V?$_Vector_val@U?$_Simple_types@U?$pair@W4FunctionType@detail@data@matlab@@V?$basic_string@DU?$char_traits@D@std@@V?$allocator@D@2@@std@@@std@@@std@@@std@@@std@@@0@V10@V10@V<lambda_5a3da967fa0b3d738ad6bdefe7e809b1>@@@Z
	??$find_if@V?$reverse_iterator@V?$_Vector_const_iterator@V?$_Vector_val@U?$_Simple_types@U?$pair@W4FunctionType@detail@data@matlab@@V?$basic_string@DU?$char_traits@D@std@@V?$allocator@D@2@@std@@@std@@@std@@@std@@@std@@@std@@V<lambda_5b3a1eb907c710cdabb1a9c0a6bbd240>@@@std@@YA?AV?$reverse_iterator@V?$_Vector_const_iterator@V?$_Vector_val@U?$_Simple_types@U?$pair@W4FunctionType@detail@data@matlab@@V?$basic_string@DU?$char_traits@D@std@@V?$allocator@D@2@@std@@@std@@@std@@@std@@@std@@@0@V10@V10@V<lambda_5b3a1eb907c710cdabb1a9c0a6bbd240>@@@Z
	??$find_if@V?$reverse_iterator@V?$_Vector_const_iterator@V?$_Vector_val@U?$_Simple_types@U?$pair@W4FunctionType@detail@data@matlab@@V?$basic_string@DU?$char_traits@D@std@@V?$allocator@D@2@@std@@@std@@@std@@@std@@@std@@@std@@V<lambda_5f8c257ece58d6518f7f7b3f44102e7b>@@@std@@YA?AV?$reverse_iterator@V?$_Vector_const_iterator@V?$_Vector_val@U?$_Simple_types@U?$pair@W4FunctionType@detail@data@matlab@@V?$basic_string@DU?$char_traits@D@std@@V?$allocator@D@2@@std@@@std@@@std@@@std@@@std@@@0@V10@V10@V<lambda_5f8c257ece58d6518f7f7b3f44102e7b>@@@Z
	??$find_if@V?$reverse_iterator@V?$_Vector_const_iterator@V?$_Vector_val@U?$_Simple_types@U?$pair@W4FunctionType@detail@data@matlab@@V?$basic_string@DU?$char_traits@D@std@@V?$allocator@D@2@@std@@@std@@@std@@@std@@@std@@@std@@V<lambda_695d040f10a98b75b53fbe763a0e3fcf>@@@std@@YA?AV?$reverse_iterator@V?$_Vector_const_iterator@V?$_Vector_val@U?$_Simple_types@U?$pair@W4FunctionType@detail@data@matlab@@V?$basic_string@DU?$char_traits@D@std@@V?$allocator@D@2@@std@@@std@@@std@@@std@@@std@@@0@V10@V10@V<lambda_695d040f10a98b75b53fbe763a0e3fcf>@@@Z
	??$find_if@V?$reverse_iterator@V?$_Vector_const_iterator@V?$_Vector_val@U?$_Simple_types@U?$pair@W4FunctionType@detail@data@matlab@@V?$basic_string@DU?$char_traits@D@std@@V?$allocator@D@2@@std@@@std@@@std@@@std@@@std@@@std@@V<lambda_7e7f3d1f1aa53fa1ba6516b644b93b01>@@@std@@YA?AV?$reverse_iterator@V?$_Vector_const_iterator@V?$_Vector_val@U?$_Simple_types@U?$pair@W4FunctionType@detail@data@matlab@@V?$basic_string@DU?$char_traits@D@std@@V?$allocator@D@2@@std@@@std@@@std@@@std@@@std@@@0@V10@V10@V<lambda_7e7f3d1f1aa53fa1ba6516b644b93b01>@@@Z
	??$find_if@V?$reverse_iterator@V?$_Vector_const_iterator@V?$_Vector_val@U?$_Simple_types@U?$pair@W4FunctionType@detail@data@matlab@@V?$basic_string@DU?$char_traits@D@std@@V?$allocator@D@2@@std@@@std@@@std@@@std@@@std@@@std@@V<lambda_8be2d382656ec6a4e3c6eaae250bfee4>@@@std@@YA?AV?$reverse_iterator@V?$_Vector_const_iterator@V?$_Vector_val@U?$_Simple_types@U?$pair@W4FunctionType@detail@data@matlab@@V?$basic_string@DU?$char_traits@D@std@@V?$allocator@D@2@@std@@@std@@@std@@@std@@@std@@@0@V10@V10@V<lambda_8be2d382656ec6a4e3c6eaae250bfee4>@@@Z
	??$find_if@V?$reverse_iterator@V?$_Vector_const_iterator@V?$_Vector_val@U?$_Simple_types@U?$pair@W4FunctionType@detail@data@matlab@@V?$basic_string@DU?$char_traits@D@std@@V?$allocator@D@2@@std@@@std@@@std@@@std@@@std@@@std@@V<lambda_9408e93e4ea90ff1a8e06c43178137d7>@@@std@@YA?AV?$reverse_iterator@V?$_Vector_const_iterator@V?$_Vector_val@U?$_Simple_types@U?$pair@W4FunctionType@detail@data@matlab@@V?$basic_string@DU?$char_traits@D@std@@V?$allocator@D@2@@std@@@std@@@std@@@std@@@std@@@0@V10@V10@V<lambda_9408e93e4ea90ff1a8e06c43178137d7>@@@Z
	??$find_if@V?$reverse_iterator@V?$_Vector_const_iterator@V?$_Vector_val@U?$_Simple_types@U?$pair@W4FunctionType@detail@data@matlab@@V?$basic_string@DU?$char_traits@D@std@@V?$allocator@D@2@@std@@@std@@@std@@@std@@@std@@@std@@V<lambda_a25eb0597b8814dd213240eb9e7defd3>@@@std@@YA?AV?$reverse_iterator@V?$_Vector_const_iterator@V?$_Vector_val@U?$_Simple_types@U?$pair@W4FunctionType@detail@data@matlab@@V?$basic_string@DU?$char_traits@D@std@@V?$allocator@D@2@@std@@@std@@@std@@@std@@@std@@@0@V10@V10@V<lambda_a25eb0597b8814dd213240eb9e7defd3>@@@Z
	??$find_if@V?$reverse_iterator@V?$_Vector_const_iterator@V?$_Vector_val@U?$_Simple_types@U?$pair@W4FunctionType@detail@data@matlab@@V?$basic_string@DU?$char_traits@D@std@@V?$allocator@D@2@@std@@@std@@@std@@@std@@@std@@@std@@V<lambda_b45305fc15bd606cdc0402abe86e0342>@@@std@@YA?AV?$reverse_iterator@V?$_Vector_const_iterator@V?$_Vector_val@U?$_Simple_types@U?$pair@W4FunctionType@detail@data@matlab@@V?$basic_string@DU?$char_traits@D@std@@V?$allocator@D@2@@std@@@std@@@std@@@std@@@std@@@0@V10@V10@V<lambda_b45305fc15bd606cdc0402abe86e0342>@@@Z
	??$find_if@V?$reverse_iterator@V?$_Vector_const_iterator@V?$_Vector_val@U?$_Simple_types@U?$pair@W4FunctionType@detail@data@matlab@@V?$basic_string@DU?$char_traits@D@std@@V?$allocator@D@2@@std@@@std@@@std@@@std@@@std@@@std@@V<lambda_c81a067a95cf8738113188358ec7a8a2>@@@std@@YA?AV?$reverse_iterator@V?$_Vector_const_iterator@V?$_Vector_val@U?$_Simple_types@U?$pair@W4FunctionType@detail@data@matlab@@V?$basic_string@DU?$char_traits@D@std@@V?$allocator@D@2@@std@@@std@@@std@@@std@@@std@@@0@V10@V10@V<lambda_c81a067a95cf8738113188358ec7a8a2>@@@Z
	??$find_if@V?$reverse_iterator@V?$_Vector_const_iterator@V?$_Vector_val@U?$_Simple_types@U?$pair@W4FunctionType@detail@data@matlab@@V?$basic_string@DU?$char_traits@D@std@@V?$allocator@D@2@@std@@@std@@@std@@@std@@@std@@@std@@V<lambda_c8617b8e1fe18dddccf3a77c16335331>@@@std@@YA?AV?$reverse_iterator@V?$_Vector_const_iterator@V?$_Vector_val@U?$_Simple_types@U?$pair@W4FunctionType@detail@data@matlab@@V?$basic_string@DU?$char_traits@D@std@@V?$allocator@D@2@@std@@@std@@@std@@@std@@@std@@@0@V10@V10@V<lambda_c8617b8e1fe18dddccf3a77c16335331>@@@Z
	??$find_if@V?$reverse_iterator@V?$_Vector_const_iterator@V?$_Vector_val@U?$_Simple_types@U?$pair@W4FunctionType@detail@data@matlab@@V?$basic_string@DU?$char_traits@D@std@@V?$allocator@D@2@@std@@@std@@@std@@@std@@@std@@@std@@V<lambda_d2bb6da424f28e796fa3e447cfb6c15a>@@@std@@YA?AV?$reverse_iterator@V?$_Vector_const_iterator@V?$_Vector_val@U?$_Simple_types@U?$pair@W4FunctionType@detail@data@matlab@@V?$basic_string@DU?$char_traits@D@std@@V?$allocator@D@2@@std@@@std@@@std@@@std@@@std@@@0@V10@V10@V<lambda_d2bb6da424f28e796fa3e447cfb6c15a>@@@Z
	??$find_if@V?$reverse_iterator@V?$_Vector_const_iterator@V?$_Vector_val@U?$_Simple_types@U?$pair@W4FunctionType@detail@data@matlab@@V?$basic_string@DU?$char_traits@D@std@@V?$allocator@D@2@@std@@@std@@@std@@@std@@@std@@@std@@V<lambda_ec5c17b8d62791c6584de35bf1319d21>@@@std@@YA?AV?$reverse_iterator@V?$_Vector_const_iterator@V?$_Vector_val@U?$_Simple_types@U?$pair@W4FunctionType@detail@data@matlab@@V?$basic_string@DU?$char_traits@D@std@@V?$allocator@D@2@@std@@@std@@@std@@@std@@@std@@@0@V10@V10@V<lambda_ec5c17b8d62791c6584de35bf1319d21>@@@Z
	??$find_if@V?$reverse_iterator@V?$_Vector_const_iterator@V?$_Vector_val@U?$_Simple_types@U?$pair@W4FunctionType@detail@data@matlab@@V?$basic_string@DU?$char_traits@D@std@@V?$allocator@D@2@@std@@@std@@@std@@@std@@@std@@@std@@V<lambda_eea4cbbc629bac234384ed27dbe99b43>@@@std@@YA?AV?$reverse_iterator@V?$_Vector_const_iterator@V?$_Vector_val@U?$_Simple_types@U?$pair@W4FunctionType@detail@data@matlab@@V?$basic_string@DU?$char_traits@D@std@@V?$allocator@D@2@@std@@@std@@@std@@@std@@@std@@@0@V10@V10@V<lambda_eea4cbbc629bac234384ed27dbe99b43>@@@Z
	??$find_if@V?$reverse_iterator@V?$_Vector_const_iterator@V?$_Vector_val@U?$_Simple_types@U?$pair@W4FunctionType@detail@data@matlab@@V?$basic_string@DU?$char_traits@D@std@@V?$allocator@D@2@@std@@@std@@@std@@@std@@@std@@@std@@V<lambda_f5b4ff6f1bc0c2d3120d50ec6b8496ac>@@@std@@YA?AV?$reverse_iterator@V?$_Vector_const_iterator@V?$_Vector_val@U?$_Simple_types@U?$pair@W4FunctionType@detail@data@matlab@@V?$basic_string@DU?$char_traits@D@std@@V?$allocator@D@2@@std@@@std@@@std@@@std@@@std@@@0@V10@V10@V<lambda_f5b4ff6f1bc0c2d3120d50ec6b8496ac>@@@Z
	??$getElement@VStruct@data@matlab@@@detail@data@matlab@@YA?AVStruct@12@V?$shared_ptr@VReferenceImpl@detail@data@matlab@@@std@@@Z
	??$getElement@_J@detail@data@matlab@@YAAEA_JV?$shared_ptr@VReferenceImpl@detail@data@matlab@@@std@@@Z
	??$getFactoryMapForBaseClass@V?$MATLABROSMsgInterface@U?$AddTwoIntsRequest_@V?$allocator@X@std@@@simple_msgs@@@@@impl@ros1_class_loader@@YAAEAV?$map@V?$basic_string@DU?$char_traits@D@std@@V?$allocator@D@2@@std@@PEAVAbstractMetaObjectBase@impl@ros1_class_loader@@U?$less@V?$basic_string@DU?$char_traits@D@std@@V?$allocator@D@2@@std@@@2@V?$allocator@U?$pair@$$CBV?$basic_string@DU?$char_traits@D@std@@V?$allocator@D@2@@std@@PEAVAbstractMetaObjectBase@impl@ros1_class_loader@@@std@@@2@@std@@XZ
	??$getFactoryMapForBaseClass@V?$MATLABROSMsgInterface@U?$AddTwoIntsResponse_@V?$allocator@X@std@@@simple_msgs@@@@@impl@ros1_class_loader@@YAAEAV?$map@V?$basic_string@DU?$char_traits@D@std@@V?$allocator@D@2@@std@@PEAVAbstractMetaObjectBase@impl@ros1_class_loader@@U?$less@V?$basic_string@DU?$char_traits@D@std@@V?$allocator@D@2@@std@@@2@V?$allocator@U?$pair@$$CBV?$basic_string@DU?$char_traits@D@std@@V?$allocator@D@2@@std@@PEAVAbstractMetaObjectBase@impl@ros1_class_loader@@@std@@@2@@std@@XZ
	??$getFactoryMapForBaseClass@V?$MATLABROSMsgInterface@U?$Num_@V?$allocator@X@std@@@simple_msgs@@@@@impl@ros1_class_loader@@YAAEAV?$map@V?$basic_string@DU?$char_traits@D@std@@V?$allocator@D@2@@std@@PEAVAbstractMetaObjectBase@impl@ros1_class_loader@@U?$less@V?$basic_string@DU?$char_traits@D@std@@V?$allocator@D@2@@std@@@2@V?$allocator@U?$pair@$$CBV?$basic_string@DU?$char_traits@D@std@@V?$allocator@D@2@@std@@PEAVAbstractMetaObjectBase@impl@ros1_class_loader@@@std@@@2@@std@@XZ
	??$getFactoryMapForBaseClass@VROSMsgElementInterfaceFactory@@@impl@ros1_class_loader@@YAAEAV?$map@V?$basic_string@DU?$char_traits@D@std@@V?$allocator@D@2@@std@@PEAVAbstractMetaObjectBase@impl@ros1_class_loader@@U?$less@V?$basic_string@DU?$char_traits@D@std@@V?$allocator@D@2@@std@@@2@V?$allocator@U?$pair@$$CBV?$basic_string@DU?$char_traits@D@std@@V?$allocator@D@2@@std@@PEAVAbstractMetaObjectBase@impl@ros1_class_loader@@@std@@@2@@std@@XZ
	??$get_local_deleter@U?$checked_array_deleter@E@mwboost@@@detail@mwboost@@YAPEAU?$checked_array_deleter@E@1@PEAU21@@Z
	??$get_local_deleter@V?$sp_ms_deleter@U?$AddTwoIntsRequest_@V?$allocator@X@std@@@simple_msgs@@@detail@mwboost@@@detail@mwboost@@YAPEAV?$sp_ms_deleter@U?$AddTwoIntsRequest_@V?$allocator@X@std@@@simple_msgs@@@01@PEAV201@@Z
	??$get_local_deleter@V?$sp_ms_deleter@U?$AddTwoIntsResponse_@V?$allocator@X@std@@@simple_msgs@@@detail@mwboost@@@detail@mwboost@@YAPEAV?$sp_ms_deleter@U?$AddTwoIntsResponse_@V?$allocator@X@std@@@simple_msgs@@@01@PEAV201@@Z
	??$get_local_deleter@V?$sp_ms_deleter@U?$Num_@V?$allocator@X@std@@@simple_msgs@@@detail@mwboost@@@detail@mwboost@@YAPEAV?$sp_ms_deleter@U?$Num_@V?$allocator@X@std@@@simple_msgs@@@01@PEAV201@@Z
	??$get_local_deleter@V?$sp_ms_deleter@V?$ServiceCallbackHelperT@U?$ServiceSpec@U?$AddTwoIntsRequest_@V?$allocator@X@std@@@simple_msgs@@U?$AddTwoIntsResponse_@V?$allocator@X@std@@@2@@ros@@@ros@@@detail@mwboost@@@detail@mwboost@@YAPEAV?$sp_ms_deleter@V?$ServiceCallbackHelperT@U?$ServiceSpec@U?$AddTwoIntsRequest_@V?$allocator@X@std@@@simple_msgs@@U?$AddTwoIntsResponse_@V?$allocator@X@std@@@2@@ros@@@ros@@@01@PEAV201@@Z
	??$get_local_deleter@V?$sp_ms_deleter@V?$SubscriptionCallbackHelperT@AEBV?$shared_ptr@$$CBU?$AddTwoIntsRequest_@V?$allocator@X@std@@@simple_msgs@@@mwboost@@X@ros@@@detail@mwboost@@@detail@mwboost@@YAPEAV?$sp_ms_deleter@V?$SubscriptionCallbackHelperT@AEBV?$shared_ptr@$$CBU?$AddTwoIntsRequest_@V?$allocator@X@std@@@simple_msgs@@@mwboost@@X@ros@@@01@PEAV201@@Z
	??$get_local_deleter@V?$sp_ms_deleter@V?$SubscriptionCallbackHelperT@AEBV?$shared_ptr@$$CBU?$AddTwoIntsResponse_@V?$allocator@X@std@@@simple_msgs@@@mwboost@@X@ros@@@detail@mwboost@@@detail@mwboost@@YAPEAV?$sp_ms_deleter@V?$SubscriptionCallbackHelperT@AEBV?$shared_ptr@$$CBU?$AddTwoIntsResponse_@V?$allocator@X@std@@@simple_msgs@@@mwboost@@X@ros@@@01@PEAV201@@Z
	??$get_local_deleter@V?$sp_ms_deleter@V?$SubscriptionCallbackHelperT@AEBV?$shared_ptr@$$CBU?$Num_@V?$allocator@X@std@@@simple_msgs@@@mwboost@@X@ros@@@detail@mwboost@@@detail@mwboost@@YAPEAV?$sp_ms_deleter@V?$SubscriptionCallbackHelperT@AEBV?$shared_ptr@$$CBU?$Num_@V?$allocator@X@std@@@simple_msgs@@@mwboost@@X@ros@@@01@PEAV201@@Z
	??$get_local_deleter@V?$sp_ms_deleter@V?$map@V?$basic_string@DU?$char_traits@D@std@@V?$allocator@D@2@@std@@V12@U?$less@V?$basic_string@DU?$char_traits@D@std@@V?$allocator@D@2@@std@@@2@V?$allocator@U?$pair@$$CBV?$basic_string@DU?$char_traits@D@std@@V?$allocator@D@2@@std@@V12@@std@@@2@@std@@@detail@mwboost@@@detail@mwboost@@YAPEAV?$sp_ms_deleter@V?$map@V?$basic_string@DU?$char_traits@D@std@@V?$allocator@D@2@@std@@V12@U?$less@V?$basic_string@DU?$char_traits@D@std@@V?$allocator@D@2@@std@@@2@V?$allocator@U?$pair@$$CBV?$basic_string@DU?$char_traits@D@std@@V?$allocator@D@2@@std@@V12@@std@@@2@@std@@@01@PEAV201@@Z
	??$get_static_exception_object@Ubad_alloc_@exception_detail@mwboost@@@exception_detail@mwboost@@YA?AVexception_ptr@1@XZ
	??$get_static_exception_object@Ubad_exception_@exception_detail@mwboost@@@exception_detail@mwboost@@YA?AVexception_ptr@1@XZ
	??$init@U?$AddTwoIntsRequest_@V?$allocator@X@std@@@simple_msgs@@@AdvertiseOptions@ros@@QEAAXAEBV?$basic_string@DU?$char_traits@D@std@@V?$allocator@D@2@@std@@IAEBV?$function@$$A6AXAEBVSingleSubscriberPublisher@ros@@@Z@mwboost@@1@Z
	??$init@U?$AddTwoIntsRequest_@V?$allocator@X@std@@@simple_msgs@@@SubscribeOptions@ros@@QEAAXAEBV?$basic_string@DU?$char_traits@D@std@@V?$allocator@D@2@@std@@IAEBV?$function@$$A6AXAEBV?$shared_ptr@$$CBU?$AddTwoIntsRequest_@V?$allocator@X@std@@@simple_msgs@@@mwboost@@@Z@mwboost@@AEBV?$function@$$A6A?AV?$shared_ptr@U?$AddTwoIntsRequest_@V?$allocator@X@std@@@simple_msgs@@@mwboost@@XZ@5@@Z
	??$init@U?$AddTwoIntsRequest_@V?$allocator@X@std@@@simple_msgs@@U?$AddTwoIntsResponse_@V?$allocator@X@std@@@2@@AdvertiseServiceOptions@ros@@QEAAXAEBV?$basic_string@DU?$char_traits@D@std@@V?$allocator@D@2@@std@@AEBV?$function@$$A6A_NAEAU?$AddTwoIntsRequest_@V?$allocator@X@std@@@simple_msgs@@AEAU?$AddTwoIntsResponse_@V?$allocator@X@std@@@2@@Z@mwboost@@@Z
	??$init@U?$AddTwoIntsResponse_@V?$allocator@X@std@@@simple_msgs@@@AdvertiseOptions@ros@@QEAAXAEBV?$basic_string@DU?$char_traits@D@std@@V?$allocator@D@2@@std@@IAEBV?$function@$$A6AXAEBVSingleSubscriberPublisher@ros@@@Z@mwboost@@1@Z
	??$init@U?$AddTwoIntsResponse_@V?$allocator@X@std@@@simple_msgs@@@SubscribeOptions@ros@@QEAAXAEBV?$basic_string@DU?$char_traits@D@std@@V?$allocator@D@2@@std@@IAEBV?$function@$$A6AXAEBV?$shared_ptr@$$CBU?$AddTwoIntsResponse_@V?$allocator@X@std@@@simple_msgs@@@mwboost@@@Z@mwboost@@AEBV?$function@$$A6A?AV?$shared_ptr@U?$AddTwoIntsResponse_@V?$allocator@X@std@@@simple_msgs@@@mwboost@@XZ@5@@Z
	??$init@U?$Num_@V?$allocator@X@std@@@simple_msgs@@@AdvertiseOptions@ros@@QEAAXAEBV?$basic_string@DU?$char_traits@D@std@@V?$allocator@D@2@@std@@IAEBV?$function@$$A6AXAEBVSingleSubscriberPublisher@ros@@@Z@mwboost@@1@Z
	??$init@U?$Num_@V?$allocator@X@std@@@simple_msgs@@@SubscribeOptions@ros@@QEAAXAEBV?$basic_string@DU?$char_traits@D@std@@V?$allocator@D@2@@std@@IAEBV?$function@$$A6AXAEBV?$shared_ptr@$$CBU?$Num_@V?$allocator@X@std@@@simple_msgs@@@mwboost@@@Z@mwboost@@AEBV?$function@$$A6A?AV?$shared_ptr@U?$Num_@V?$allocator@X@std@@@simple_msgs@@@mwboost@@XZ@5@@Z
	??$init@UAddTwoInts@simple_msgs@@@ServiceClientOptions@ros@@QEAAXAEBV?$basic_string@DU?$char_traits@D@std@@V?$allocator@D@2@@std@@_NAEBV?$map@V?$basic_string@DU?$char_traits@D@std@@V?$allocator@D@2@@std@@V12@U?$less@V?$basic_string@DU?$char_traits@D@std@@V?$allocator@D@2@@std@@@2@V?$allocator@U?$pair@$$CBV?$basic_string@DU?$char_traits@D@std@@V?$allocator@D@2@@std@@V12@@std@@@2@@3@@Z
	??$insert@$0A@$0A@@?$_Tree@V?$_Tmap_traits@_JU?$AddTwoIntsRequest_@V?$allocator@X@std@@@simple_msgs@@U?$less@_J@std@@V?$allocator@U?$pair@$$CB_JU?$AddTwoIntsRequest_@V?$allocator@X@std@@@simple_msgs@@@std@@@4@$0A@@std@@@std@@QEAA?AU?$pair@V?$_Tree_iterator@V?$_Tree_val@U?$_Tree_simple_types@U?$pair@$$CB_JU?$AddTwoIntsRequest_@V?$allocator@X@std@@@simple_msgs@@@std@@@std@@@std@@@std@@_N@1@$$QEAU?$pair@$$CB_JU?$AddTwoIntsRequest_@V?$allocator@X@std@@@simple_msgs@@@1@@Z
	??$make_shared@U?$AddTwoIntsRequest_@V?$allocator@X@std@@@simple_msgs@@$$V@mwboost@@YA?AV?$shared_ptr@U?$AddTwoIntsRequest_@V?$allocator@X@std@@@simple_msgs@@@0@XZ
	??$make_shared@U?$AddTwoIntsResponse_@V?$allocator@X@std@@@simple_msgs@@$$V@mwboost@@YA?AV?$shared_ptr@U?$AddTwoIntsResponse_@V?$allocator@X@std@@@simple_msgs@@@0@XZ
	??$make_shared@U?$Num_@V?$allocator@X@std@@@simple_msgs@@$$V@mwboost@@YA?AV?$shared_ptr@U?$Num_@V?$allocator@X@std@@@simple_msgs@@@0@XZ
	??$make_shared@V?$ROSBagWriterImpl@U?$AddTwoIntsRequest_@V?$allocator@X@std@@@simple_msgs@@Vsimple_msgs_msg_AddTwoIntsRequest_common@@@@$$V@std@@YA?AV?$shared_ptr@V?$ROSBagWriterImpl@U?$AddTwoIntsRequest_@V?$allocator@X@std@@@simple_msgs@@Vsimple_msgs_msg_AddTwoIntsRequest_common@@@@@0@XZ
	??$make_shared@V?$ROSBagWriterImpl@U?$AddTwoIntsResponse_@V?$allocator@X@std@@@simple_msgs@@Vsimple_msgs_msg_AddTwoIntsResponse_common@@@@$$V@std@@YA?AV?$shared_ptr@V?$ROSBagWriterImpl@U?$AddTwoIntsResponse_@V?$allocator@X@std@@@simple_msgs@@Vsimple_msgs_msg_AddTwoIntsResponse_common@@@@@0@XZ
	??$make_shared@V?$ROSBagWriterImpl@U?$Num_@V?$allocator@X@std@@@simple_msgs@@Vsimple_msgs_msg_Num_common@@@@$$V@std@@YA?AV?$shared_ptr@V?$ROSBagWriterImpl@U?$Num_@V?$allocator@X@std@@@simple_msgs@@Vsimple_msgs_msg_Num_common@@@@@0@XZ
	??$make_shared@V?$ROSPublisherImpl@U?$AddTwoIntsRequest_@V?$allocator@X@std@@@simple_msgs@@Vsimple_msgs_msg_AddTwoIntsRequest_common@@@@$$V@std@@YA?AV?$shared_ptr@V?$ROSPublisherImpl@U?$AddTwoIntsRequest_@V?$allocator@X@std@@@simple_msgs@@Vsimple_msgs_msg_AddTwoIntsRequest_common@@@@@0@XZ
	??$make_shared@V?$ROSPublisherImpl@U?$AddTwoIntsResponse_@V?$allocator@X@std@@@simple_msgs@@Vsimple_msgs_msg_AddTwoIntsResponse_common@@@@$$V@std@@YA?AV?$shared_ptr@V?$ROSPublisherImpl@U?$AddTwoIntsResponse_@V?$allocator@X@std@@@simple_msgs@@Vsimple_msgs_msg_AddTwoIntsResponse_common@@@@@0@XZ
	??$make_shared@V?$ROSPublisherImpl@U?$Num_@V?$allocator@X@std@@@simple_msgs@@Vsimple_msgs_msg_Num_common@@@@$$V@std@@YA?AV?$shared_ptr@V?$ROSPublisherImpl@U?$Num_@V?$allocator@X@std@@@simple_msgs@@Vsimple_msgs_msg_Num_common@@@@@0@XZ
	??$make_shared@V?$ROSSubscriberImpl@U?$AddTwoIntsRequest_@V?$allocator@X@std@@@simple_msgs@@V?$shared_ptr@$$CBU?$AddTwoIntsRequest_@V?$allocator@X@std@@@simple_msgs@@@mwboost@@Vsimple_msgs_msg_AddTwoIntsRequest_common@@@@$$V@std@@YA?AV?$shared_ptr@V?$ROSSubscriberImpl@U?$AddTwoIntsRequest_@V?$allocator@X@std@@@simple_msgs@@V?$shared_ptr@$$CBU?$AddTwoIntsRequest_@V?$allocator@X@std@@@simple_msgs@@@mwboost@@Vsimple_msgs_msg_AddTwoIntsRequest_common@@@@@0@XZ
	??$make_shared@V?$ROSSubscriberImpl@U?$AddTwoIntsResponse_@V?$allocator@X@std@@@simple_msgs@@V?$shared_ptr@$$CBU?$AddTwoIntsResponse_@V?$allocator@X@std@@@simple_msgs@@@mwboost@@Vsimple_msgs_msg_AddTwoIntsResponse_common@@@@$$V@std@@YA?AV?$shared_ptr@V?$ROSSubscriberImpl@U?$AddTwoIntsResponse_@V?$allocator@X@std@@@simple_msgs@@V?$shared_ptr@$$CBU?$AddTwoIntsResponse_@V?$allocator@X@std@@@simple_msgs@@@mwboost@@Vsimple_msgs_msg_AddTwoIntsResponse_common@@@@@0@XZ
	??$make_shared@V?$ROSSubscriberImpl@U?$Num_@V?$allocator@X@std@@@simple_msgs@@V?$shared_ptr@$$CBU?$Num_@V?$allocator@X@std@@@simple_msgs@@@mwboost@@Vsimple_msgs_msg_Num_common@@@@$$V@std@@YA?AV?$shared_ptr@V?$ROSSubscriberImpl@U?$Num_@V?$allocator@X@std@@@simple_msgs@@V?$shared_ptr@$$CBU?$Num_@V?$allocator@X@std@@@simple_msgs@@@mwboost@@Vsimple_msgs_msg_Num_common@@@@@0@XZ
	??$make_shared@V?$ROSSvcClientImpl@UAddTwoInts@simple_msgs@@U?$AddTwoIntsRequest_@V?$allocator@X@std@@@2@U?$AddTwoIntsResponse_@V?$allocator@X@std@@@2@Vsimple_msgs_msg_AddTwoIntsRequest_common@@Vsimple_msgs_msg_AddTwoIntsResponse_common@@@@$$V@std@@YA?AV?$shared_ptr@V?$ROSSvcClientImpl@UAddTwoInts@simple_msgs@@U?$AddTwoIntsRequest_@V?$allocator@X@std@@@2@U?$AddTwoIntsResponse_@V?$allocator@X@std@@@2@Vsimple_msgs_msg_AddTwoIntsRequest_common@@Vsimple_msgs_msg_AddTwoIntsResponse_common@@@@@0@XZ
	??$make_shared@V?$ROSSvcServerImpl@U?$AddTwoIntsRequest_@V?$allocator@X@std@@@simple_msgs@@U?$AddTwoIntsResponse_@V?$allocator@X@std@@@2@Vsimple_msgs_msg_AddTwoIntsRequest_common@@Vsimple_msgs_msg_AddTwoIntsResponse_common@@@@$$V@std@@YA?AV?$shared_ptr@V?$ROSSvcServerImpl@U?$AddTwoIntsRequest_@V?$allocator@X@std@@@simple_msgs@@U?$AddTwoIntsResponse_@V?$allocator@X@std@@@2@Vsimple_msgs_msg_AddTwoIntsRequest_common@@Vsimple_msgs_msg_AddTwoIntsResponse_common@@@@@0@XZ
	??$make_shared@V?$ServiceCallbackHelperT@U?$ServiceSpec@U?$AddTwoIntsRequest_@V?$allocator@X@std@@@simple_msgs@@U?$AddTwoIntsResponse_@V?$allocator@X@std@@@2@@ros@@@ros@@AEBV?$function@$$A6A_NAEAU?$AddTwoIntsRequest_@V?$allocator@X@std@@@simple_msgs@@AEAU?$AddTwoIntsResponse_@V?$allocator@X@std@@@2@@Z@mwboost@@@mwboost@@YA?AV?$shared_ptr@V?$ServiceCallbackHelperT@U?$ServiceSpec@U?$AddTwoIntsRequest_@V?$allocator@X@std@@@simple_msgs@@U?$AddTwoIntsResponse_@V?$allocator@X@std@@@2@@ros@@@ros@@@0@AEBV?$function@$$A6A_NAEAU?$AddTwoIntsRequest_@V?$allocator@X@std@@@simple_msgs@@AEAU?$AddTwoIntsResponse_@V?$allocator@X@std@@@2@@Z@0@@Z
	??$make_shared@V?$SubscriptionCallbackHelperT@AEBV?$shared_ptr@$$CBU?$AddTwoIntsRequest_@V?$allocator@X@std@@@simple_msgs@@@mwboost@@X@ros@@AEBV?$function@$$A6AXAEBV?$shared_ptr@$$CBU?$AddTwoIntsRequest_@V?$allocator@X@std@@@simple_msgs@@@mwboost@@@Z@mwboost@@AEBV?$function@$$A6A?AV?$shared_ptr@U?$AddTwoIntsRequest_@V?$allocator@X@std@@@simple_msgs@@@mwboost@@XZ@4@@mwboost@@YA?AV?$shared_ptr@V?$SubscriptionCallbackHelperT@AEBV?$shared_ptr@$$CBU?$AddTwoIntsRequest_@V?$allocator@X@std@@@simple_msgs@@@mwboost@@X@ros@@@0@AEBV?$function@$$A6AXAEBV?$shared_ptr@$$CBU?$AddTwoIntsRequest_@V?$allocator@X@std@@@simple_msgs@@@mwboost@@@Z@0@AEBV?$function@$$A6A?AV?$shared_ptr@U?$AddTwoIntsRequest_@V?$allocator@X@std@@@simple_msgs@@@mwboost@@XZ@0@@Z
	??$make_shared@V?$SubscriptionCallbackHelperT@AEBV?$shared_ptr@$$CBU?$AddTwoIntsResponse_@V?$allocator@X@std@@@simple_msgs@@@mwboost@@X@ros@@AEBV?$function@$$A6AXAEBV?$shared_ptr@$$CBU?$AddTwoIntsResponse_@V?$allocator@X@std@@@simple_msgs@@@mwboost@@@Z@mwboost@@AEBV?$function@$$A6A?AV?$shared_ptr@U?$AddTwoIntsResponse_@V?$allocator@X@std@@@simple_msgs@@@mwboost@@XZ@4@@mwboost@@YA?AV?$shared_ptr@V?$SubscriptionCallbackHelperT@AEBV?$shared_ptr@$$CBU?$AddTwoIntsResponse_@V?$allocator@X@std@@@simple_msgs@@@mwboost@@X@ros@@@0@AEBV?$function@$$A6AXAEBV?$shared_ptr@$$CBU?$AddTwoIntsResponse_@V?$allocator@X@std@@@simple_msgs@@@mwboost@@@Z@0@AEBV?$function@$$A6A?AV?$shared_ptr@U?$AddTwoIntsResponse_@V?$allocator@X@std@@@simple_msgs@@@mwboost@@XZ@0@@Z
	??$make_shared@V?$SubscriptionCallbackHelperT@AEBV?$shared_ptr@$$CBU?$Num_@V?$allocator@X@std@@@simple_msgs@@@mwboost@@X@ros@@AEBV?$function@$$A6AXAEBV?$shared_ptr@$$CBU?$Num_@V?$allocator@X@std@@@simple_msgs@@@mwboost@@@Z@mwboost@@AEBV?$function@$$A6A?AV?$shared_ptr@U?$Num_@V?$allocator@X@std@@@simple_msgs@@@mwboost@@XZ@4@@mwboost@@YA?AV?$shared_ptr@V?$SubscriptionCallbackHelperT@AEBV?$shared_ptr@$$CBU?$Num_@V?$allocator@X@std@@@simple_msgs@@@mwboost@@X@ros@@@0@AEBV?$function@$$A6AXAEBV?$shared_ptr@$$CBU?$Num_@V?$allocator@X@std@@@simple_msgs@@@mwboost@@@Z@0@AEBV?$function@$$A6A?AV?$shared_ptr@U?$Num_@V?$allocator@X@std@@@simple_msgs@@@mwboost@@XZ@0@@Z
	??$make_shared@V?$map@V?$basic_string@DU?$char_traits@D@std@@V?$allocator@D@2@@std@@V12@U?$less@V?$basic_string@DU?$char_traits@D@std@@V?$allocator@D@2@@std@@@2@V?$allocator@U?$pair@$$CBV?$basic_string@DU?$char_traits@D@std@@V?$allocator@D@2@@std@@V12@@std@@@2@@std@@$$V@mwboost@@YA?AV?$shared_ptr@V?$map@V?$basic_string@DU?$char_traits@D@std@@V?$allocator@D@2@@std@@V12@U?$less@V?$basic_string@DU?$char_traits@D@std@@V?$allocator@D@2@@std@@@2@V?$allocator@U?$pair@$$CBV?$basic_string@DU?$char_traits@D@std@@V?$allocator@D@2@@std@@V12@@std@@@2@@std@@@0@XZ
	??$make_shared@VPublisher@ros@@V12@@std@@YA?AV?$shared_ptr@VPublisher@ros@@@0@$$QEAVPublisher@ros@@@Z
	??$make_shared@VServiceClient@ros@@V12@@std@@YA?AV?$shared_ptr@VServiceClient@ros@@@0@$$QEAVServiceClient@ros@@@Z
	??$make_shared@VServiceServer@ros@@V12@@std@@YA?AV?$shared_ptr@VServiceServer@ros@@@0@$$QEAVServiceServer@ros@@@Z
	??$make_shared@VSubscriber@ros@@V12@@std@@YA?AV?$shared_ptr@VSubscriber@ros@@@0@$$QEAVSubscriber@ros@@@Z
	??$move@AEAV?$TypedArray@_J@data@matlab@@@std@@YA$$QEAV?$TypedArray@_J@data@matlab@@AEAV123@@Z
	??$publish@U?$AddTwoIntsRequest_@V?$allocator@X@std@@@simple_msgs@@@Publisher@ros@@QEBAXAEBV?$shared_ptr@U?$AddTwoIntsRequest_@V?$allocator@X@std@@@simple_msgs@@@mwboost@@@Z
	??$publish@U?$AddTwoIntsResponse_@V?$allocator@X@std@@@simple_msgs@@@Publisher@ros@@QEBAXAEBV?$shared_ptr@U?$AddTwoIntsResponse_@V?$allocator@X@std@@@simple_msgs@@@mwboost@@@Z
	??$publish@U?$Num_@V?$allocator@X@std@@@simple_msgs@@@Publisher@ros@@QEBAXAEBV?$shared_ptr@U?$Num_@V?$allocator@X@std@@@simple_msgs@@@mwboost@@@Z
	??$read@UIStream@serialization@ros@@@?$Serializer@_J@serialization@ros@@SAXAEAUIStream@12@AEA_J@Z
	??$registerPlugin@Vsimple_msgs_AddTwoInts_service@@VROSMsgElementInterfaceFactory@@@impl@ros1_class_loader@@YAXAEBV?$basic_string@DU?$char_traits@D@std@@V?$allocator@D@2@@std@@0@Z
	??$registerPlugin@Vsimple_msgs_Num_message@@VROSMsgElementInterfaceFactory@@@impl@ros1_class_loader@@YAXAEBV?$basic_string@DU?$char_traits@D@std@@V?$allocator@D@2@@std@@0@Z
	??$registerPlugin@Vsimple_msgs_msg_AddTwoIntsRequest_common@@V?$MATLABROSMsgInterface@U?$AddTwoIntsRequest_@V?$allocator@X@std@@@simple_msgs@@@@@impl@ros1_class_loader@@YAXAEBV?$basic_string@DU?$char_traits@D@std@@V?$allocator@D@2@@std@@0@Z
	??$registerPlugin@Vsimple_msgs_msg_AddTwoIntsResponse_common@@V?$MATLABROSMsgInterface@U?$AddTwoIntsResponse_@V?$allocator@X@std@@@simple_msgs@@@@@impl@ros1_class_loader@@YAXAEBV?$basic_string@DU?$char_traits@D@std@@V?$allocator@D@2@@std@@0@Z
	??$registerPlugin@Vsimple_msgs_msg_Num_common@@V?$MATLABROSMsgInterface@U?$Num_@V?$allocator@X@std@@@simple_msgs@@@@@impl@ros1_class_loader@@YAXAEBV?$basic_string@DU?$char_traits@D@std@@V?$allocator@D@2@@std@@0@Z
	??$reset@E@?$shared_array@E@mwboost@@QEAAXPEAE@Z
	??$reset@VArrayImpl@impl@data@matlab@@V<lambda_49bc69670bef5877f460780ec06c4b58>@@@?$shared_ptr@VArrayImpl@impl@data@matlab@@@std@@QEAAXPEAVArrayImpl@impl@data@matlab@@V<lambda_49bc69670bef5877f460780ec06c4b58>@@@Z
	??$resolveFunction@P6AHHHPEA_N@Z@detail@data@matlab@@YAP6AHHHPEA_N@ZW4FunctionType@012@@Z
	??$resolveFunction@P6AHPEAPEAVArrayFactoryImpl@impl@data@matlab@@@Z@detail@data@matlab@@YAP6AHPEAPEAVArrayFactoryImpl@impl@12@@ZW4FunctionType@012@@Z
	??$resolveFunction@P6AHPEAVArrayFactoryImpl@impl@data@matlab@@HPEBXPEAPEAVArrayImpl@234@@Z@detail@data@matlab@@YAP6AHPEAVArrayFactoryImpl@impl@12@HPEBXPEAPEAVArrayImpl@412@@ZW4FunctionType@012@@Z
	??$resolveFunction@P6AHPEAVArrayFactoryImpl@impl@data@matlab@@PEA_K_KPEAVNameListImpl@detail@34@PEAPEAVArrayImpl@234@@Z@detail@data@matlab@@YAP6AHPEAVArrayFactoryImpl@impl@12@PEA_K_KPEAVNameListImpl@012@PEAPEAVArrayImpl@412@@ZW4FunctionType@012@@Z
	??$resolveFunction@P6AHPEAVArrayFactoryImpl@impl@data@matlab@@PEBD_KPEAPEAVArrayImpl@234@@Z@detail@data@matlab@@YAP6AHPEAVArrayFactoryImpl@impl@12@PEBD_KPEAPEAVArrayImpl@412@@ZW4FunctionType@012@@Z
	??$resolveFunction@P6AHPEAVArrayImpl@impl@data@matlab@@PEAH@Z@detail@data@matlab@@YAP6AHPEAVArrayImpl@impl@12@PEAH@ZW4FunctionType@012@@Z
	??$resolveFunction@P6AHPEAVArrayImpl@impl@data@matlab@@_KPEAPEAVReferenceImpl@detail@34@@Z@detail@data@matlab@@YAP6AHPEAVArrayImpl@impl@12@_KPEAPEAVReferenceImpl@012@@ZW4FunctionType@012@@Z
	??$resolveFunction@P6AHPEAVReferenceImpl@detail@data@matlab@@H_N@Z@detail@data@matlab@@YAP6AHPEAVReferenceImpl@012@H_N@ZW4FunctionType@012@@Z
	??$resolveFunction@P6AHPEAVReferenceImpl@detail@data@matlab@@PEAPEAX@Z@detail@data@matlab@@YAP6AHPEAVReferenceImpl@012@PEAPEAX@ZW4FunctionType@012@@Z
	??$resolveFunction@P6AHPEAVReferenceImpl@detail@data@matlab@@PEAVArrayImpl@impl@34@@Z@detail@data@matlab@@YAP6AHPEAVReferenceImpl@012@PEAVArrayImpl@impl@12@@ZW4FunctionType@012@@Z
	??$resolveFunction@P6AHPEAVReferenceImpl@detail@data@matlab@@PEBD_K@Z@detail@data@matlab@@YAP6AHPEAVReferenceImpl@012@PEBD_K@ZW4FunctionType@012@@Z
	??$resolveFunction@P6AHPEAVReferenceImpl@detail@data@matlab@@PEBD_KPEAPEAVArrayImpl@impl@34@@Z@detail@data@matlab@@YAP6AHPEAVReferenceImpl@012@PEBD_KPEAPEAVArrayImpl@impl@12@@ZW4FunctionType@012@@Z
	??$resolveFunction@P6APEAVNameListImpl@detail@data@matlab@@_K@Z@detail@data@matlab@@YAP6APEAVNameListImpl@012@_K@ZW4FunctionType@012@@Z
	??$resolveFunction@P6AXPEAVArrayFactoryImpl@impl@data@matlab@@@Z@detail@data@matlab@@YAP6AXPEAVArrayFactoryImpl@impl@12@@ZW4FunctionType@012@@Z
	??$resolveFunction@P6AXPEAVArrayImpl@impl@data@matlab@@@Z@detail@data@matlab@@YAP6AXPEAVArrayImpl@impl@12@@ZW4FunctionType@012@@Z
	??$resolveFunction@P6AXPEAVNameListImpl@detail@data@matlab@@@Z@detail@data@matlab@@YAP6AXPEAVNameListImpl@012@@ZW4FunctionType@012@@Z
	??$resolveFunction@P6AXPEAVNameListImpl@detail@data@matlab@@PEBD_K@Z@detail@data@matlab@@YAP6AXPEAVNameListImpl@012@PEBD_K@ZW4FunctionType@012@@Z
	??$resolveFunction@P6AXPEAVReferenceImpl@detail@data@matlab@@@Z@detail@data@matlab@@YAP6AXPEAVReferenceImpl@012@@ZW4FunctionType@012@@Z
	??$resolveFunction@P6AXPEAVReferenceImpl@detail@data@matlab@@PEAPEAVArrayImpl@impl@34@@Z@detail@data@matlab@@YAP6AXPEAVReferenceImpl@012@PEAPEAVArrayImpl@impl@12@@ZW4FunctionType@012@@Z
	??$resolveFunction@P6A_NPEAVArrayImpl@impl@data@matlab@@_NPEAPEAV1234@@Z@detail@data@matlab@@YAP6A_NPEAVArrayImpl@impl@12@_NPEAPEAV3412@@ZW4FunctionType@012@@Z
	??$serialize@U?$AddTwoIntsRequest_@V?$allocator@X@std@@@simple_msgs@@UOStream@serialization@ros@@@serialization@ros@@YAXAEAUOStream@01@AEBU?$AddTwoIntsRequest_@V?$allocator@X@std@@@simple_msgs@@@Z
	??$serializeMessage@U?$AddTwoIntsRequest_@V?$allocator@X@std@@@simple_msgs@@@serialization@ros@@YA?AVSerializedMessage@1@AEBU?$AddTwoIntsRequest_@V?$allocator@X@std@@@simple_msgs@@@Z
	??$serializeMessage@U?$AddTwoIntsResponse_@V?$allocator@X@std@@@simple_msgs@@@serialization@ros@@YA?AVSerializedMessage@1@AEBU?$AddTwoIntsResponse_@V?$allocator@X@std@@@simple_msgs@@@Z
	??$serializeMessage@U?$Num_@V?$allocator@X@std@@@simple_msgs@@@serialization@ros@@YA?AVSerializedMessage@1@AEBU?$Num_@V?$allocator@X@std@@@simple_msgs@@@Z
	??$serializeServiceResponse@U?$AddTwoIntsResponse_@V?$allocator@X@std@@@simple_msgs@@@serialization@ros@@YA?AVSerializedMessage@1@_NAEBU?$AddTwoIntsResponse_@V?$allocator@X@std@@@simple_msgs@@@Z
	??$serializedLength@U?$AddTwoIntsRequest_@V?$allocator@X@std@@@simple_msgs@@@?$Serializer@U?$AddTwoIntsRequest_@V?$allocator@X@std@@@simple_msgs@@@serialization@ros@@SAIAEBU?$AddTwoIntsRequest_@V?$allocator@X@std@@@simple_msgs@@@Z
	??$setElement@VArray@data@matlab@@@detail@data@matlab@@YAXPEAVReferenceImpl@012@VArray@12@H@Z
	??$sp_forward@AEBV?$function@$$A6A?AV?$shared_ptr@U?$AddTwoIntsRequest_@V?$allocator@X@std@@@simple_msgs@@@mwboost@@XZ@mwboost@@@detail@mwboost@@YAAEBV?$function@$$A6A?AV?$shared_ptr@U?$AddTwoIntsRequest_@V?$allocator@X@std@@@simple_msgs@@@mwboost@@XZ@1@AEBV21@@Z
	??$sp_forward@AEBV?$function@$$A6A?AV?$shared_ptr@U?$AddTwoIntsResponse_@V?$allocator@X@std@@@simple_msgs@@@mwboost@@XZ@mwboost@@@detail@mwboost@@YAAEBV?$function@$$A6A?AV?$shared_ptr@U?$AddTwoIntsResponse_@V?$allocator@X@std@@@simple_msgs@@@mwboost@@XZ@1@AEBV21@@Z
	??$sp_forward@AEBV?$function@$$A6A?AV?$shared_ptr@U?$Num_@V?$allocator@X@std@@@simple_msgs@@@mwboost@@XZ@mwboost@@@detail@mwboost@@YAAEBV?$function@$$A6A?AV?$shared_ptr@U?$Num_@V?$allocator@X@std@@@simple_msgs@@@mwboost@@XZ@1@AEBV21@@Z
	??$sp_forward@AEBV?$function@$$A6AXAEBV?$shared_ptr@$$CBU?$AddTwoIntsRequest_@V?$allocator@X@std@@@simple_msgs@@@mwboost@@@Z@mwboost@@@detail@mwboost@@YAAEBV?$function@$$A6AXAEBV?$shared_ptr@$$CBU?$AddTwoIntsRequest_@V?$allocator@X@std@@@simple_msgs@@@mwboost@@@Z@1@AEBV21@@Z
	??$sp_forward@AEBV?$function@$$A6AXAEBV?$shared_ptr@$$CBU?$AddTwoIntsResponse_@V?$allocator@X@std@@@simple_msgs@@@mwboost@@@Z@mwboost@@@detail@mwboost@@YAAEBV?$function@$$A6AXAEBV?$shared_ptr@$$CBU?$AddTwoIntsResponse_@V?$allocator@X@std@@@simple_msgs@@@mwboost@@@Z@1@AEBV21@@Z
	??$sp_forward@AEBV?$function@$$A6AXAEBV?$shared_ptr@$$CBU?$Num_@V?$allocator@X@std@@@simple_msgs@@@mwboost@@@Z@mwboost@@@detail@mwboost@@YAAEBV?$function@$$A6AXAEBV?$shared_ptr@$$CBU?$Num_@V?$allocator@X@std@@@simple_msgs@@@mwboost@@@Z@1@AEBV21@@Z
	??$sp_forward@AEBV?$function@$$A6A_NAEAU?$AddTwoIntsRequest_@V?$allocator@X@std@@@simple_msgs@@AEAU?$AddTwoIntsResponse_@V?$allocator@X@std@@@2@@Z@mwboost@@@detail@mwboost@@YAAEBV?$function@$$A6A_NAEAU?$AddTwoIntsRequest_@V?$allocator@X@std@@@simple_msgs@@AEAU?$AddTwoIntsResponse_@V?$allocator@X@std@@@2@@Z@1@AEBV21@@Z
	??$sp_pointer_construct@$$CBVclone_base@exception_detail@mwboost@@V?$clone_impl@Ubad_alloc_@exception_detail@mwboost@@@23@@detail@mwboost@@YAXPEAV?$shared_ptr@$$CBVclone_base@exception_detail@mwboost@@@1@PEAV?$clone_impl@Ubad_alloc_@exception_detail@mwboost@@@exception_detail@1@AEAVshared_count@01@@Z
	??$sp_pointer_construct@$$CBVclone_base@exception_detail@mwboost@@V?$clone_impl@Ubad_exception_@exception_detail@mwboost@@@23@@detail@mwboost@@YAXPEAV?$shared_ptr@$$CBVclone_base@exception_detail@mwboost@@@1@PEAV?$clone_impl@Ubad_exception_@exception_detail@mwboost@@@exception_detail@1@AEAVshared_count@01@@Z
	??$static_pointer_cast@$$CBU?$AddTwoIntsRequest_@V?$allocator@X@std@@@simple_msgs@@$$CBX@mwboost@@YA?AV?$shared_ptr@$$CBU?$AddTwoIntsRequest_@V?$allocator@X@std@@@simple_msgs@@@0@$$QEAV?$shared_ptr@$$CBX@0@@Z
	??$static_pointer_cast@$$CBU?$AddTwoIntsResponse_@V?$allocator@X@std@@@simple_msgs@@$$CBX@mwboost@@YA?AV?$shared_ptr@$$CBU?$AddTwoIntsResponse_@V?$allocator@X@std@@@simple_msgs@@@0@$$QEAV?$shared_ptr@$$CBX@0@@Z
	??$static_pointer_cast@$$CBU?$Num_@V?$allocator@X@std@@@simple_msgs@@$$CBX@mwboost@@YA?AV?$shared_ptr@$$CBU?$Num_@V?$allocator@X@std@@@simple_msgs@@@0@$$QEAV?$shared_ptr@$$CBX@0@@Z
	??$subscribe@U?$AddTwoIntsRequest_@V?$allocator@X@std@@@simple_msgs@@V?$ROSSubscriberImpl@U?$AddTwoIntsRequest_@V?$allocator@X@std@@@simple_msgs@@V?$shared_ptr@$$CBU?$AddTwoIntsRequest_@V?$allocator@X@std@@@simple_msgs@@@mwboost@@Vsimple_msgs_msg_AddTwoIntsRequest_common@@@@@NodeHandle@ros@@QEAA?AVSubscriber@1@AEBV?$basic_string@DU?$char_traits@D@std@@V?$allocator@D@2@@std@@IP8?$ROSSubscriberImpl@U?$AddTwoIntsRequest_@V?$allocator@X@std@@@simple_msgs@@V?$shared_ptr@$$CBU?$AddTwoIntsRequest_@V?$allocator@X@std@@@simple_msgs@@@mwboost@@Vsimple_msgs_msg_AddTwoIntsRequest_common@@@@EAAXAEBV?$shared_ptr@$$CBU?$AddTwoIntsRequest_@V?$allocator@X@std@@@simple_msgs@@@mwboost@@@ZPEAV5@AEBVTransportHints@1@@Z
	??$subscribe@U?$AddTwoIntsResponse_@V?$allocator@X@std@@@simple_msgs@@V?$ROSSubscriberImpl@U?$AddTwoIntsResponse_@V?$allocator@X@std@@@simple_msgs@@V?$shared_ptr@$$CBU?$AddTwoIntsResponse_@V?$allocator@X@std@@@simple_msgs@@@mwboost@@Vsimple_msgs_msg_AddTwoIntsResponse_common@@@@@NodeHandle@ros@@QEAA?AVSubscriber@1@AEBV?$basic_string@DU?$char_traits@D@std@@V?$allocator@D@2@@std@@IP8?$ROSSubscriberImpl@U?$AddTwoIntsResponse_@V?$allocator@X@std@@@simple_msgs@@V?$shared_ptr@$$CBU?$AddTwoIntsResponse_@V?$allocator@X@std@@@simple_msgs@@@mwboost@@Vsimple_msgs_msg_AddTwoIntsResponse_common@@@@EAAXAEBV?$shared_ptr@$$CBU?$AddTwoIntsResponse_@V?$allocator@X@std@@@simple_msgs@@@mwboost@@@ZPEAV5@AEBVTransportHints@1@@Z
	??$subscribe@U?$Num_@V?$allocator@X@std@@@simple_msgs@@V?$ROSSubscriberImpl@U?$Num_@V?$allocator@X@std@@@simple_msgs@@V?$shared_ptr@$$CBU?$Num_@V?$allocator@X@std@@@simple_msgs@@@mwboost@@Vsimple_msgs_msg_Num_common@@@@@NodeHandle@ros@@QEAA?AVSubscriber@1@AEBV?$basic_string@DU?$char_traits@D@std@@V?$allocator@D@2@@std@@IP8?$ROSSubscriberImpl@U?$Num_@V?$allocator@X@std@@@simple_msgs@@V?$shared_ptr@$$CBU?$Num_@V?$allocator@X@std@@@simple_msgs@@@mwboost@@Vsimple_msgs_msg_Num_common@@@@EAAXAEBV?$shared_ptr@$$CBU?$Num_@V?$allocator@X@std@@@simple_msgs@@@mwboost@@@ZPEAV5@AEBVTransportHints@1@@Z
	??$throw_exception@Vbad_function_call@mwboost@@@mwboost@@YAXAEBVbad_function_call@0@@Z
	??$throw_exception@Vthread_resource_error@mwboost@@@mwboost@@YAXAEBVthread_resource_error@0@@Z
	??$toHeaderString@E@Bag@rosbag@@AEBA?AV?$basic_string@DU?$char_traits@D@std@@V?$allocator@D@2@@std@@PEBE@Z
	??$toHeaderString@I@Bag@rosbag@@AEBA?AV?$basic_string@DU?$char_traits@D@std@@V?$allocator@D@2@@std@@PEBI@Z
	??$write@U?$AddTwoIntsRequest_@V?$allocator@X@std@@@simple_msgs@@@Bag@rosbag@@QEAAXAEBV?$basic_string@DU?$char_traits@D@std@@V?$allocator@D@2@@std@@AEBVTime@ros@@AEBV?$shared_ptr@U?$AddTwoIntsRequest_@V?$allocator@X@std@@@simple_msgs@@@mwboost@@V?$shared_ptr@V?$map@V?$basic_string@DU?$char_traits@D@std@@V?$allocator@D@2@@std@@V12@U?$less@V?$basic_string@DU?$char_traits@D@std@@V?$allocator@D@2@@std@@@2@V?$allocator@U?$pair@$$CBV?$basic_string@DU?$char_traits@D@std@@V?$allocator@D@2@@std@@V12@@std@@@2@@std@@@7@@Z
	??$write@U?$AddTwoIntsResponse_@V?$allocator@X@std@@@simple_msgs@@@Bag@rosbag@@QEAAXAEBV?$basic_string@DU?$char_traits@D@std@@V?$allocator@D@2@@std@@AEBVTime@ros@@AEBV?$shared_ptr@U?$AddTwoIntsResponse_@V?$allocator@X@std@@@simple_msgs@@@mwboost@@V?$shared_ptr@V?$map@V?$basic_string@DU?$char_traits@D@std@@V?$allocator@D@2@@std@@V12@U?$less@V?$basic_string@DU?$char_traits@D@std@@V?$allocator@D@2@@std@@@2@V?$allocator@U?$pair@$$CBV?$basic_string@DU?$char_traits@D@std@@V?$allocator@D@2@@std@@V12@@std@@@2@@std@@@7@@Z
	??$write@U?$Num_@V?$allocator@X@std@@@simple_msgs@@@Bag@rosbag@@QEAAXAEBV?$basic_string@DU?$char_traits@D@std@@V?$allocator@D@2@@std@@AEBVTime@ros@@AEBV?$shared_ptr@U?$Num_@V?$allocator@X@std@@@simple_msgs@@@mwboost@@V?$shared_ptr@V?$map@V?$basic_string@DU?$char_traits@D@std@@V?$allocator@D@2@@std@@V12@U?$less@V?$basic_string@DU?$char_traits@D@std@@V?$allocator@D@2@@std@@@2@V?$allocator@U?$pair@$$CBV?$basic_string@DU?$char_traits@D@std@@V?$allocator@D@2@@std@@V12@@std@@@2@@std@@@7@@Z
	??$write@UOStream@serialization@ros@@@?$Serializer@E@serialization@ros@@SAXAEAUOStream@12@E@Z
	??$write@UOStream@serialization@ros@@@?$Serializer@I@serialization@ros@@SAXAEAUOStream@12@I@Z
	??$write@UOStream@serialization@ros@@@?$Serializer@_J@serialization@ros@@SAXAEAUOStream@12@_J@Z
	??$writeMessageDataRecord@U?$AddTwoIntsRequest_@V?$allocator@X@std@@@simple_msgs@@@Bag@rosbag@@AEAAXIAEBVTime@ros@@AEBU?$AddTwoIntsRequest_@V?$allocator@X@std@@@simple_msgs@@@Z
	??$writeMessageDataRecord@U?$AddTwoIntsResponse_@V?$allocator@X@std@@@simple_msgs@@@Bag@rosbag@@AEAAXIAEBVTime@ros@@AEBU?$AddTwoIntsResponse_@V?$allocator@X@std@@@simple_msgs@@@Z
	??$writeMessageDataRecord@U?$Num_@V?$allocator@X@std@@@simple_msgs@@@Bag@rosbag@@AEAAXIAEBVTime@ros@@AEBU?$Num_@V?$allocator@X@std@@@simple_msgs@@@Z
	??0<lambda_0f370ae65f102ac7a82bad354932aaa4>@@QEAA@AEBW4FunctionType@detail@data@matlab@@@Z
	??0<lambda_176c21c6905cf270b75ba66e243bfeb4>@@QEAA@AEBW4FunctionType@detail@data@matlab@@@Z
	??0<lambda_269f37e20f44d03140f9167e6568acef>@@QEAA@AEBW4FunctionType@detail@data@matlab@@@Z
	??0<lambda_4f43e8ce25aa75a6d852dcaacaa3ec2b>@@QEAA@AEBW4FunctionType@detail@data@matlab@@@Z
	??0<lambda_55961c2b940488b1a47869efee919f7a>@@QEAA@AEBW4FunctionType@detail@data@matlab@@@Z
	??0<lambda_5a3da967fa0b3d738ad6bdefe7e809b1>@@QEAA@AEBW4FunctionType@detail@data@matlab@@@Z
	??0<lambda_5b3a1eb907c710cdabb1a9c0a6bbd240>@@QEAA@AEBW4FunctionType@detail@data@matlab@@@Z
	??0<lambda_5f8c257ece58d6518f7f7b3f44102e7b>@@QEAA@AEBW4FunctionType@detail@data@matlab@@@Z
	??0<lambda_695d040f10a98b75b53fbe763a0e3fcf>@@QEAA@AEBW4FunctionType@detail@data@matlab@@@Z
	??0<lambda_7e7f3d1f1aa53fa1ba6516b644b93b01>@@QEAA@AEBW4FunctionType@detail@data@matlab@@@Z
	??0<lambda_8be2d382656ec6a4e3c6eaae250bfee4>@@QEAA@AEBW4FunctionType@detail@data@matlab@@@Z
	??0<lambda_9408e93e4ea90ff1a8e06c43178137d7>@@QEAA@AEBW4FunctionType@detail@data@matlab@@@Z
	??0<lambda_a25eb0597b8814dd213240eb9e7defd3>@@QEAA@AEBW4FunctionType@detail@data@matlab@@@Z
	??0<lambda_b45305fc15bd606cdc0402abe86e0342>@@QEAA@AEBW4FunctionType@detail@data@matlab@@@Z
	??0<lambda_c81a067a95cf8738113188358ec7a8a2>@@QEAA@AEBW4FunctionType@detail@data@matlab@@@Z
	??0<lambda_c8617b8e1fe18dddccf3a77c16335331>@@QEAA@AEBW4FunctionType@detail@data@matlab@@@Z
	??0<lambda_d2bb6da424f28e796fa3e447cfb6c15a>@@QEAA@AEBW4FunctionType@detail@data@matlab@@@Z
	??0<lambda_ec5c17b8d62791c6584de35bf1319d21>@@QEAA@AEBW4FunctionType@detail@data@matlab@@@Z
	??0<lambda_eea4cbbc629bac234384ed27dbe99b43>@@QEAA@AEBW4FunctionType@detail@data@matlab@@@Z
	??0<lambda_f5b4ff6f1bc0c2d3120d50ec6b8496ac>@@QEAA@AEBW4FunctionType@detail@data@matlab@@@Z
	??0?$AbstractMetaObject@V?$MATLABROSMsgInterface@U?$AddTwoIntsRequest_@V?$allocator@X@std@@@simple_msgs@@@@@impl@ros1_class_loader@@QEAA@AEBV?$basic_string@DU?$char_traits@D@std@@V?$allocator@D@2@@std@@0@Z
	??0?$AbstractMetaObject@V?$MATLABROSMsgInterface@U?$AddTwoIntsResponse_@V?$allocator@X@std@@@simple_msgs@@@@@impl@ros1_class_loader@@QEAA@AEBV?$basic_string@DU?$char_traits@D@std@@V?$allocator@D@2@@std@@0@Z
	??0?$AbstractMetaObject@V?$MATLABROSMsgInterface@U?$Num_@V?$allocator@X@std@@@simple_msgs@@@@@impl@ros1_class_loader@@QEAA@AEBV?$basic_string@DU?$char_traits@D@std@@V?$allocator@D@2@@std@@0@Z
	??0?$AbstractMetaObject@VROSMsgElementInterfaceFactory@@@impl@ros1_class_loader@@QEAA@AEBV?$basic_string@DU?$char_traits@D@std@@V?$allocator@D@2@@std@@0@Z
	??0?$ArrayElementTypedRef@VArray@data@matlab@@$00@data@matlab@@AEAA@V?$shared_ptr@VReferenceImpl@detail@data@matlab@@@std@@@Z
	??0?$ArrayElementTypedRef@VArray@data@matlab@@$0A@@data@matlab@@AEAA@V?$shared_ptr@VReferenceImpl@detail@data@matlab@@@std@@@Z
	??0?$ArrayException@VException@matlab@@$00@detail@data@matlab@@QEAA@AEBV0123@@Z
	??0?$ArrayException@VException@matlab@@$00@detail@data@matlab@@QEAA@V?$basic_string@DU?$char_traits@D@std@@V?$allocator@D@2@@std@@@Z
	??0?$ArrayException@VException@matlab@@$01@detail@data@matlab@@QEAA@AEBV0123@@Z
	??0?$ArrayException@VException@matlab@@$01@detail@data@matlab@@QEAA@V?$basic_string@DU?$char_traits@D@std@@V?$allocator@D@2@@std@@@Z
	??0?$ArrayException@VException@matlab@@$02@detail@data@matlab@@QEAA@AEBV0123@@Z
	??0?$ArrayException@VException@matlab@@$02@detail@data@matlab@@QEAA@V?$basic_string@DU?$char_traits@D@std@@V?$allocator@D@2@@std@@@Z
	??0?$ArrayException@VException@matlab@@$04@detail@data@matlab@@QEAA@AEBV0123@@Z
	??0?$ArrayException@VException@matlab@@$04@detail@data@matlab@@QEAA@V?$basic_string@DU?$char_traits@D@std@@V?$allocator@D@2@@std@@@Z
	??0?$ArrayException@VException@matlab@@$05@detail@data@matlab@@QEAA@AEBV0123@@Z
	??0?$ArrayException@VException@matlab@@$05@detail@data@matlab@@QEAA@V?$basic_string@DU?$char_traits@D@std@@V?$allocator@D@2@@std@@@Z
	??0?$ArrayException@VException@matlab@@$06@detail@data@matlab@@QEAA@AEBV0123@@Z
	??0?$ArrayException@VException@matlab@@$06@detail@data@matlab@@QEAA@V?$basic_string@DU?$char_traits@D@std@@V?$allocator@D@2@@std@@@Z
	??0?$ArrayException@VException@matlab@@$07@detail@data@matlab@@QEAA@AEBV0123@@Z
	??0?$ArrayException@VException@matlab@@$07@detail@data@matlab@@QEAA@V?$basic_string@DU?$char_traits@D@std@@V?$allocator@D@2@@std@@@Z
	??0?$ArrayException@VException@matlab@@$08@detail@data@matlab@@QEAA@AEBV0123@@Z
	??0?$ArrayException@VException@matlab@@$08@detail@data@matlab@@QEAA@V?$basic_string@DU?$char_traits@D@std@@V?$allocator@D@2@@std@@@Z
	??0?$ArrayException@VException@matlab@@$09@detail@data@matlab@@QEAA@AEBV0123@@Z
	??0?$ArrayException@VException@matlab@@$09@detail@data@matlab@@QEAA@V?$basic_string@DU?$char_traits@D@std@@V?$allocator@D@2@@std@@@Z
	??0?$ArrayException@VException@matlab@@$0BA@@detail@data@matlab@@QEAA@AEBV0123@@Z
	??0?$ArrayException@VException@matlab@@$0BA@@detail@data@matlab@@QEAA@V?$basic_string@DU?$char_traits@D@std@@V?$allocator@D@2@@std@@@Z
	??0?$ArrayException@VException@matlab@@$0BC@@detail@data@matlab@@QEAA@AEBV0123@@Z
	??0?$ArrayException@VException@matlab@@$0BC@@detail@data@matlab@@QEAA@V?$basic_string@DU?$char_traits@D@std@@V?$allocator@D@2@@std@@@Z
	??0?$ArrayException@VException@matlab@@$0BD@@detail@data@matlab@@QEAA@AEBV0123@@Z
	??0?$ArrayException@VException@matlab@@$0BD@@detail@data@matlab@@QEAA@V?$basic_string@DU?$char_traits@D@std@@V?$allocator@D@2@@std@@@Z
	??0?$ArrayException@VException@matlab@@$0BE@@detail@data@matlab@@QEAA@AEBV0123@@Z
	??0?$ArrayException@VException@matlab@@$0BE@@detail@data@matlab@@QEAA@V?$basic_string@DU?$char_traits@D@std@@V?$allocator@D@2@@std@@@Z
	??0?$ArrayException@VException@matlab@@$0BF@@detail@data@matlab@@QEAA@AEBV0123@@Z
	??0?$ArrayException@VException@matlab@@$0BF@@detail@data@matlab@@QEAA@V?$basic_string@DU?$char_traits@D@std@@V?$allocator@D@2@@std@@@Z
	??0?$ArrayException@VException@matlab@@$0BG@@detail@data@matlab@@QEAA@AEBV0123@@Z
	??0?$ArrayException@VException@matlab@@$0BG@@detail@data@matlab@@QEAA@V?$basic_string@DU?$char_traits@D@std@@V?$allocator@D@2@@std@@@Z
	??0?$ArrayException@VException@matlab@@$0BH@@detail@data@matlab@@QEAA@AEBV0123@@Z
	??0?$ArrayException@VException@matlab@@$0BH@@detail@data@matlab@@QEAA@V?$basic_string@DU?$char_traits@D@std@@V?$allocator@D@2@@std@@@Z
	??0?$ArrayException@VException@matlab@@$0BI@@detail@data@matlab@@QEAA@AEBV0123@@Z
	??0?$ArrayException@VException@matlab@@$0BI@@detail@data@matlab@@QEAA@V?$basic_string@DU?$char_traits@D@std@@V?$allocator@D@2@@std@@@Z
	??0?$ArrayException@VException@matlab@@$0BJ@@detail@data@matlab@@QEAA@AEBV0123@@Z
	??0?$ArrayException@VException@matlab@@$0BJ@@detail@data@matlab@@QEAA@V?$basic_string@DU?$char_traits@D@std@@V?$allocator@D@2@@std@@@Z
	??0?$ArrayException@VException@matlab@@$0BK@@detail@data@matlab@@QEAA@AEBV0123@@Z
	??0?$ArrayException@VException@matlab@@$0BK@@detail@data@matlab@@QEAA@V?$basic_string@DU?$char_traits@D@std@@V?$allocator@D@2@@std@@@Z
	??0?$ArrayException@VException@matlab@@$0BL@@detail@data@matlab@@QEAA@AEBV0123@@Z
	??0?$ArrayException@VException@matlab@@$0BL@@detail@data@matlab@@QEAA@V?$basic_string@DU?$char_traits@D@std@@V?$allocator@D@2@@std@@@Z
	??0?$ArrayException@VException@matlab@@$0BM@@detail@data@matlab@@QEAA@AEBV0123@@Z
	??0?$ArrayException@VException@matlab@@$0BM@@detail@data@matlab@@QEAA@V?$basic_string@DU?$char_traits@D@std@@V?$allocator@D@2@@std@@@Z
	??0?$ArrayException@VException@matlab@@$0BN@@detail@data@matlab@@QEAA@AEBV0123@@Z
	??0?$ArrayException@VException@matlab@@$0BN@@detail@data@matlab@@QEAA@V?$basic_string@DU?$char_traits@D@std@@V?$allocator@D@2@@std@@@Z
	??0?$ArrayException@VException@matlab@@$0N@@detail@data@matlab@@QEAA@AEBV0123@@Z
	??0?$ArrayException@VException@matlab@@$0N@@detail@data@matlab@@QEAA@V?$basic_string@DU?$char_traits@D@std@@V?$allocator@D@2@@std@@@Z
	??0?$ArrayException@VException@matlab@@$0O@@detail@data@matlab@@QEAA@AEBV0123@@Z
	??0?$ArrayException@VException@matlab@@$0O@@detail@data@matlab@@QEAA@V?$basic_string@DU?$char_traits@D@std@@V?$allocator@D@2@@std@@@Z
	??0?$ArrayException@VException@matlab@@$0P@@detail@data@matlab@@QEAA@AEBV0123@@Z
	??0?$ArrayException@VException@matlab@@$0P@@detail@data@matlab@@QEAA@V?$basic_string@DU?$char_traits@D@std@@V?$allocator@D@2@@std@@@Z
	??0?$MATLABROSMsgInterface@U?$AddTwoIntsRequest_@V?$allocator@X@std@@@simple_msgs@@@@QEAA@AEBV0@@Z
	??0?$MATLABROSMsgInterface@U?$AddTwoIntsRequest_@V?$allocator@X@std@@@simple_msgs@@@@QEAA@XZ
	??0?$MATLABROSMsgInterface@U?$AddTwoIntsResponse_@V?$allocator@X@std@@@simple_msgs@@@@QEAA@AEBV0@@Z
	??0?$MATLABROSMsgInterface@U?$AddTwoIntsResponse_@V?$allocator@X@std@@@simple_msgs@@@@QEAA@XZ
	??0?$MATLABROSMsgInterface@U?$Num_@V?$allocator@X@std@@@simple_msgs@@@@QEAA@AEBV0@@Z
	??0?$MATLABROSMsgInterface@U?$Num_@V?$allocator@X@std@@@simple_msgs@@@@QEAA@XZ
	??0?$MessageEvent@$$CBU?$AddTwoIntsRequest_@V?$allocator@X@std@@@simple_msgs@@@ros@@QEAA@AEBV?$MessageEvent@$$CBX@1@AEBV?$function@$$A6A?AV?$shared_ptr@U?$AddTwoIntsRequest_@V?$allocator@X@std@@@simple_msgs@@@mwboost@@XZ@mwboost@@@Z
	??0?$MessageEvent@$$CBU?$AddTwoIntsResponse_@V?$allocator@X@std@@@simple_msgs@@@ros@@QEAA@AEBV?$MessageEvent@$$CBX@1@AEBV?$function@$$A6A?AV?$shared_ptr@U?$AddTwoIntsResponse_@V?$allocator@X@std@@@simple_msgs@@@mwboost@@XZ@mwboost@@@Z
	??0?$MessageEvent@$$CBU?$Num_@V?$allocator@X@std@@@simple_msgs@@@ros@@QEAA@AEBV?$MessageEvent@$$CBX@1@AEBV?$function@$$A6A?AV?$shared_ptr@U?$Num_@V?$allocator@X@std@@@simple_msgs@@@mwboost@@XZ@mwboost@@@Z
	??0?$ROSSubscriberImpl@U?$AddTwoIntsRequest_@V?$allocator@X@std@@@simple_msgs@@V?$shared_ptr@$$CBU?$AddTwoIntsRequest_@V?$allocator@X@std@@@simple_msgs@@@mwboost@@Vsimple_msgs_msg_AddTwoIntsRequest_common@@@@QEAA@XZ
	??0?$ROSSubscriberImpl@U?$AddTwoIntsResponse_@V?$allocator@X@std@@@simple_msgs@@V?$shared_ptr@$$CBU?$AddTwoIntsResponse_@V?$allocator@X@std@@@simple_msgs@@@mwboost@@Vsimple_msgs_msg_AddTwoIntsResponse_common@@@@QEAA@XZ
	??0?$ROSSubscriberImpl@U?$Num_@V?$allocator@X@std@@@simple_msgs@@V?$shared_ptr@$$CBU?$Num_@V?$allocator@X@std@@@simple_msgs@@@mwboost@@Vsimple_msgs_msg_Num_common@@@@QEAA@XZ
	??0?$ROSSvcClientImpl@UAddTwoInts@simple_msgs@@U?$AddTwoIntsRequest_@V?$allocator@X@std@@@2@U?$AddTwoIntsResponse_@V?$allocator@X@std@@@2@Vsimple_msgs_msg_AddTwoIntsRequest_common@@Vsimple_msgs_msg_AddTwoIntsResponse_common@@@@QEAA@XZ
	??0?$ROSSvcServerImpl@U?$AddTwoIntsRequest_@V?$allocator@X@std@@@simple_msgs@@U?$AddTwoIntsResponse_@V?$allocator@X@std@@@2@Vsimple_msgs_msg_AddTwoIntsRequest_common@@Vsimple_msgs_msg_AddTwoIntsResponse_common@@@@QEAA@XZ
	??0?$ServiceCallbackHelperT@U?$ServiceSpec@U?$AddTwoIntsRequest_@V?$allocator@X@std@@@simple_msgs@@U?$AddTwoIntsResponse_@V?$allocator@X@std@@@2@@ros@@@ros@@QEAA@AEBV?$function@$$A6A_NAEAU?$AddTwoIntsRequest_@V?$allocator@X@std@@@simple_msgs@@AEAU?$AddTwoIntsResponse_@V?$allocator@X@std@@@2@@Z@mwboost@@AEBV?$function@$$A6A?AV?$shared_ptr@U?$AddTwoIntsRequest_@V?$allocator@X@std@@@simple_msgs@@@mwboost@@XZ@3@AEBV?$function@$$A6A?AV?$shared_ptr@U?$AddTwoIntsResponse_@V?$allocator@X@std@@@simple_msgs@@@mwboost@@XZ@3@@Z
	??0?$ServiceSpecCallParams@U?$AddTwoIntsRequest_@V?$allocator@X@std@@@simple_msgs@@U?$AddTwoIntsResponse_@V?$allocator@X@std@@@2@@ros@@QEAA@XZ
	??0?$SubscriptionCallbackHelperT@AEBV?$shared_ptr@$$CBU?$AddTwoIntsRequest_@V?$allocator@X@std@@@simple_msgs@@@mwboost@@X@ros@@QEAA@AEBV?$function@$$A6AXV?$shared_ptr@$$CBU?$AddTwoIntsRequest_@V?$allocator@X@std@@@simple_msgs@@@mwboost@@@Z@mwboost@@AEBV?$function@$$A6A?AV?$shared_ptr@U?$AddTwoIntsRequest_@V?$allocator@X@std@@@simple_msgs@@@mwboost@@XZ@3@@Z
	??0?$SubscriptionCallbackHelperT@AEBV?$shared_ptr@$$CBU?$AddTwoIntsResponse_@V?$allocator@X@std@@@simple_msgs@@@mwboost@@X@ros@@QEAA@AEBV?$function@$$A6AXV?$shared_ptr@$$CBU?$AddTwoIntsResponse_@V?$allocator@X@std@@@simple_msgs@@@mwboost@@@Z@mwboost@@AEBV?$function@$$A6A?AV?$shared_ptr@U?$AddTwoIntsResponse_@V?$allocator@X@std@@@simple_msgs@@@mwboost@@XZ@3@@Z
	??0?$SubscriptionCallbackHelperT@AEBV?$shared_ptr@$$CBU?$Num_@V?$allocator@X@std@@@simple_msgs@@@mwboost@@X@ros@@QEAA@AEBV?$function@$$A6AXV?$shared_ptr@$$CBU?$Num_@V?$allocator@X@std@@@simple_msgs@@@mwboost@@@Z@mwboost@@AEBV?$function@$$A6A?AV?$shared_ptr@U?$Num_@V?$allocator@X@std@@@simple_msgs@@@mwboost@@XZ@3@@Z
	??0?$TypedArray@_J@data@matlab@@QEAA@$$QEAVArray@12@@Z
	??0?$_String_val@U?$_Simple_types@D@std@@@std@@QEAA@XZ
	??0?$_Tree_unchecked_const_iterator@V?$_Tree_val@U?$_Tree_simple_types@U?$pair@$$CBV?$basic_string@DU?$char_traits@D@std@@V?$allocator@D@2@@std@@I@std@@@std@@@std@@U_Iterator_base0@2@@std@@QEAA@PEAU?$_Tree_node@U?$pair@$$CBV?$basic_string@DU?$char_traits@D@std@@V?$allocator@D@2@@std@@I@std@@PEAX@1@PEBV?$_Tree_val@U?$_Tree_simple_types@U?$pair@$$CBV?$basic_string@DU?$char_traits@D@std@@V?$allocator@D@2@@std@@I@std@@@std@@@1@@Z
	??0?$_Tree_unchecked_const_iterator@V?$_Tree_val@U?$_Tree_simple_types@U?$pair@$$CBV?$map@V?$basic_string@DU?$char_traits@D@std@@V?$allocator@D@2@@std@@V12@U?$less@V?$basic_string@DU?$char_traits@D@std@@V?$allocator@D@2@@std@@@2@V?$allocator@U?$pair@$$CBV?$basic_string@DU?$char_traits@D@std@@V?$allocator@D@2@@std@@V12@@std@@@2@@std@@I@std@@@std@@@std@@U_Iterator_base0@2@@std@@QEAA@PEAU?$_Tree_node@U?$pair@$$CBV?$map@V?$basic_string@DU?$char_traits@D@std@@V?$allocator@D@2@@std@@V12@U?$less@V?$basic_string@DU?$char_traits@D@std@@V?$allocator@D@2@@std@@@2@V?$allocator@U?$pair@$$CBV?$basic_string@DU?$char_traits@D@std@@V?$allocator@D@2@@std@@V12@@std@@@2@@std@@I@std@@PEAX@1@PEBV?$_Tree_val@U?$_Tree_simple_types@U?$pair@$$CBV?$map@V?$basic_string@DU?$char_traits@D@std@@V?$allocator@D@2@@std@@V12@U?$less@V?$basic_string@DU?$char_traits@D@std@@V?$allocator@D@2@@std@@@2@V?$allocator@U?$pair@$$CBV?$basic_string@DU?$char_traits@D@std@@V?$allocator@D@2@@std@@V12@@std@@@2@@std@@I@std@@@std@@@1@@Z
	??0?$_Tree_unchecked_const_iterator@V?$_Tree_val@U?$_Tree_simple_types@UIndexEntry@rosbag@@@std@@@std@@U_Iterator_base0@2@@std@@QEAA@PEAU?$_Tree_node@UIndexEntry@rosbag@@PEAX@1@PEBV?$_Tree_val@U?$_Tree_simple_types@UIndexEntry@rosbag@@@std@@@1@@Z
	??0?$_Vector_val@U?$_Simple_types@V?$basic_string@DU?$char_traits@D@std@@V?$allocator@D@2@@std@@@std@@@std@@QEAA@XZ
	??0?$_Vector_val@U?$_Simple_types@_K@std@@@std@@QEAA@XZ
	??0?$allocator@U?$pair@W4FunctionType@detail@data@matlab@@V?$basic_string@DU?$char_traits@D@std@@V?$allocator@D@2@@std@@@std@@@std@@QEAA@XZ
	??0?$basic_string@DU?$char_traits@D@std@@V?$allocator@D@2@@std@@QEAA@$$QEAV01@@Z
	??0?$basic_string@DU?$char_traits@D@std@@V?$allocator@D@2@@std@@QEAA@AEBV01@@Z
	??0?$basic_string@DU?$char_traits@D@std@@V?$allocator@D@2@@std@@QEAA@QEBD@Z
	??0?$basic_string@DU?$char_traits@D@std@@V?$allocator@D@2@@std@@QEAA@QEBD_K@Z
	??0?$basic_string@DU?$char_traits@D@std@@V?$allocator@D@2@@std@@QEAA@U_String_constructor_concat_tag@1@AEAV01@1@Z
	??0?$basic_string@DU?$char_traits@D@std@@V?$allocator@D@2@@std@@QEAA@XZ
	??0?$clone_impl@Ubad_alloc_@exception_detail@mwboost@@@exception_detail@mwboost@@AEAA@AEBV012@Uclone_tag@012@@Z
	??0?$clone_impl@Ubad_alloc_@exception_detail@mwboost@@@exception_detail@mwboost@@QEAA@AEBUbad_alloc_@12@@Z
	??0?$clone_impl@Ubad_alloc_@exception_detail@mwboost@@@exception_detail@mwboost@@QEAA@AEBV012@@Z
	??0?$clone_impl@Ubad_exception_@exception_detail@mwboost@@@exception_detail@mwboost@@AEAA@AEBV012@Uclone_tag@012@@Z
	??0?$clone_impl@Ubad_exception_@exception_detail@mwboost@@@exception_detail@mwboost@@QEAA@AEBUbad_exception_@12@@Z
	??0?$clone_impl@Ubad_exception_@exception_detail@mwboost@@@exception_detail@mwboost@@QEAA@AEBV012@@Z
	??0?$initializer_list@U?$pair@W4FunctionType@detail@data@matlab@@V?$basic_string@DU?$char_traits@D@std@@V?$allocator@D@2@@std@@@std@@@std@@QEAA@PEBU?$pair@W4FunctionType@detail@data@matlab@@V?$basic_string@DU?$char_traits@D@std@@V?$allocator@D@2@@std@@@1@0@Z
	??0?$map@V?$basic_string@DU?$char_traits@D@std@@V?$allocator@D@2@@std@@V12@U?$less@V?$basic_string@DU?$char_traits@D@std@@V?$allocator@D@2@@std@@@2@V?$allocator@U?$pair@$$CBV?$basic_string@DU?$char_traits@D@std@@V?$allocator@D@2@@std@@V12@@std@@@2@@std@@QEAA@XZ
	??0?$map@_JU?$AddTwoIntsRequest_@V?$allocator@X@std@@@simple_msgs@@U?$less@_J@std@@V?$allocator@U?$pair@$$CB_JU?$AddTwoIntsRequest_@V?$allocator@X@std@@@simple_msgs@@@std@@@4@@std@@QEAA@XZ
	??0?$multiset@UIndexEntry@rosbag@@U?$less@UIndexEntry@rosbag@@@std@@V?$allocator@UIndexEntry@rosbag@@@4@@std@@QEAA@XZ
	??0?$pair@$$CBV?$basic_string@DU?$char_traits@D@std@@V?$allocator@D@2@@std@@V12@@std@@QEAA@AEBU01@@Z
	??0?$shared_ptr@VArrayImpl@impl@data@matlab@@@std@@QEAA@$$QEAV01@@Z
	??0?$shared_ptr@VArrayImpl@impl@data@matlab@@@std@@QEAA@AEBV01@@Z
	??0?$shared_ptr@VReferenceImpl@detail@data@matlab@@@std@@QEAA@AEBV01@@Z
	??0?$unique_lock@Vmutex@std@@@std@@QEAA@AEAVmutex@1@@Z
	??0?$vector@U?$pair@W4FunctionType@detail@data@matlab@@V?$basic_string@DU?$char_traits@D@std@@V?$allocator@D@2@@std@@@std@@V?$allocator@U?$pair@W4FunctionType@detail@data@matlab@@V?$basic_string@DU?$char_traits@D@std@@V?$allocator@D@2@@std@@@std@@@2@@std@@QEAA@V?$initializer_list@U?$pair@W4FunctionType@detail@data@matlab@@V?$basic_string@DU?$char_traits@D@std@@V?$allocator@D@2@@std@@@std@@@1@AEBV?$allocator@U?$pair@W4FunctionType@detail@data@matlab@@V?$basic_string@DU?$char_traits@D@std@@V?$allocator@D@2@@std@@@std@@@1@@Z
	??0?$vector@VArray@data@matlab@@V?$allocator@VArray@data@matlab@@@std@@@std@@QEAA@V?$initializer_list@VArray@data@matlab@@@1@AEBV?$allocator@VArray@data@matlab@@@1@@Z
	??0?$wrapexcept@Vbad_function_call@mwboost@@@mwboost@@QEAA@AEBU01@@Z
	??0?$wrapexcept@Vbad_function_call@mwboost@@@mwboost@@QEAA@AEBVbad_function_call@1@@Z
	??0?$wrapexcept@Vthread_resource_error@mwboost@@@mwboost@@QEAA@AEBU01@@Z
	??0?$wrapexcept@Vthread_resource_error@mwboost@@@mwboost@@QEAA@AEBVthread_resource_error@1@@Z
	??0Array@data@matlab@@IEAA@PEAVArrayImpl@impl@12@@Z
	??0Array@data@matlab@@QEAA@$$QEAV012@@Z
	??0Array@data@matlab@@QEAA@AEBV012@@Z
	??0ArrayFactory@data@matlab@@QEAA@XZ
	??0ArrayReferenceExt@data@matlab@@IEAA@V?$shared_ptr@VReferenceImpl@detail@data@matlab@@@std@@@Z
	??0BagException@rosbag@@QEAA@AEBV01@@Z
	??0BagException@rosbag@@QEAA@AEBV?$basic_string@DU?$char_traits@D@std@@V?$allocator@D@2@@std@@@Z
	??0Exception@matlab@@QEAA@AEBV01@@Z
	??0Exception@ros@@QEAA@AEBV01@@Z
	??0MATLABSvcClientInterface@@QEAA@XZ
	??0NameList@ArrayFactory@data@matlab@@QEAA@PEAVNameListImpl@detail@23@@Z
	??0ReferenceHolder@data@matlab@@IEAA@PEAVReferenceImpl@detail@12@@Z
	??0ReferenceHolder@data@matlab@@IEAA@V?$shared_ptr@VReferenceImpl@detail@data@matlab@@@std@@@Z
	??0Struct@data@matlab@@AEAA@V?$shared_ptr@VReferenceImpl@detail@data@matlab@@@std@@@Z
	??0_Sentry_base@?$basic_ostream@DU?$char_traits@D@std@@@std@@QEAA@AEAV12@@Z
	??0bad_alloc@std@@QEAA@AEBV01@@Z
	??0bad_alloc_@exception_detail@mwboost@@QEAA@AEBU012@@Z
	??0bad_alloc_@exception_detail@mwboost@@QEAA@XZ
	??0bad_array_new_length@std@@QEAA@AEBV01@@Z
	??0bad_array_new_length@std@@QEAA@XZ
	??0bad_exception@std@@QEAA@AEBV01@@Z
	??0bad_exception_@exception_detail@mwboost@@QEAA@AEBU012@@Z
	??0bad_exception_@exception_detail@mwboost@@QEAA@XZ
	??0bad_function_call@mwboost@@QEAA@AEBV01@@Z
	??0bad_function_call@mwboost@@QEAA@XZ
	??0clone_base@exception_detail@mwboost@@QEAA@AEBV012@@Z
	??0error_code@system@mwboost@@QEAA@HAEBVerror_category@12@@Z
	??0exception@mwboost@@QEAA@AEBV01@@Z
	??0exception@std@@QEAA@AEBV01@@Z
	??0exception@std@@QEAA@QEBD@Z
	??0invalid_argument@std@@QEAA@AEBV01@@Z
	??0invalid_argument@std@@QEAA@PEBD@Z
	??0logic_error@std@@QEAA@AEBV01@@Z
	??0runtime_error@std@@QEAA@AEBV01@@Z
	??0runtime_error@std@@QEAA@AEBV?$basic_string@DU?$char_traits@D@std@@V?$allocator@D@2@@1@@Z
	??0sentry@?$basic_ostream@DU?$char_traits@D@std@@@std@@QEAA@AEAV12@@Z
	??0shared_count@detail@mwboost@@QEAA@AEBV012@@Z
	??0simple_msgs_AddTwoInts_service@@QEAA@AEBV0@@Z
	??0simple_msgs_AddTwoInts_service@@QEAA@XZ
	??0simple_msgs_Num_message@@QEAA@AEBV0@@Z
	??0simple_msgs_Num_message@@QEAA@XZ
	??0simple_msgs_msg_AddTwoIntsRequest_common@@QEAA@AEBV0@@Z
	??0simple_msgs_msg_AddTwoIntsRequest_common@@QEAA@XZ
	??0simple_msgs_msg_AddTwoIntsResponse_common@@QEAA@AEBV0@@Z
	??0simple_msgs_msg_AddTwoIntsResponse_common@@QEAA@XZ
	??0simple_msgs_msg_Num_common@@QEAA@AEBV0@@Z
	??0simple_msgs_msg_Num_common@@QEAA@XZ
	??0system_error@system@mwboost@@QEAA@AEBV012@@Z
	??0thread_exception@mwboost@@QEAA@AEBV01@@Z
	??0thread_resource_error@mwboost@@QEAA@AEBV01@@Z
	??0thread_resource_error@mwboost@@QEAA@XZ
	??1?$ArrayElementTypedRef@VArray@data@matlab@@$00@data@matlab@@QEAA@XZ
	??1?$ArrayElementTypedRef@VArray@data@matlab@@$0A@@data@matlab@@QEAA@XZ
	??1?$ArrayElementTypedRef@VStruct@data@matlab@@$00@data@matlab@@QEAA@XZ
	??1?$ArrayElementTypedRef@VStruct@data@matlab@@$0A@@data@matlab@@QEAA@XZ
	??1?$ArrayElementTypedRef@_J$00@data@matlab@@QEAA@XZ
	??1?$ArrayException@VException@matlab@@$00@detail@data@matlab@@UEAA@XZ
	??1?$ArrayException@VException@matlab@@$01@detail@data@matlab@@UEAA@XZ
	??1?$ArrayException@VException@matlab@@$02@detail@data@matlab@@UEAA@XZ
	??1?$ArrayException@VException@matlab@@$04@detail@data@matlab@@UEAA@XZ
	??1?$ArrayException@VException@matlab@@$05@detail@data@matlab@@UEAA@XZ
	??1?$ArrayException@VException@matlab@@$06@detail@data@matlab@@UEAA@XZ
	??1?$ArrayException@VException@matlab@@$07@detail@data@matlab@@UEAA@XZ
	??1?$ArrayException@VException@matlab@@$08@detail@data@matlab@@UEAA@XZ
	??1?$ArrayException@VException@matlab@@$09@detail@data@matlab@@UEAA@XZ
	??1?$ArrayException@VException@matlab@@$0BA@@detail@data@matlab@@UEAA@XZ
	??1?$ArrayException@VException@matlab@@$0BC@@detail@data@matlab@@UEAA@XZ
	??1?$ArrayException@VException@matlab@@$0BD@@detail@data@matlab@@UEAA@XZ
	??1?$ArrayException@VException@matlab@@$0BE@@detail@data@matlab@@UEAA@XZ
	??1?$ArrayException@VException@matlab@@$0BF@@detail@data@matlab@@UEAA@XZ
	??1?$ArrayException@VException@matlab@@$0BG@@detail@data@matlab@@UEAA@XZ
	??1?$ArrayException@VException@matlab@@$0BH@@detail@data@matlab@@UEAA@XZ
	??1?$ArrayException@VException@matlab@@$0BI@@detail@data@matlab@@UEAA@XZ
	??1?$ArrayException@VException@matlab@@$0BJ@@detail@data@matlab@@UEAA@XZ
	??1?$ArrayException@VException@matlab@@$0BK@@detail@data@matlab@@UEAA@XZ
	??1?$ArrayException@VException@matlab@@$0BL@@detail@data@matlab@@UEAA@XZ
	??1?$ArrayException@VException@matlab@@$0BM@@detail@data@matlab@@UEAA@XZ
	??1?$ArrayException@VException@matlab@@$0BN@@detail@data@matlab@@UEAA@XZ
	??1?$ArrayException@VException@matlab@@$0N@@detail@data@matlab@@UEAA@XZ
	??1?$ArrayException@VException@matlab@@$0O@@detail@data@matlab@@UEAA@XZ
	??1?$ArrayException@VException@matlab@@$0P@@detail@data@matlab@@UEAA@XZ
	??1?$MATLABROSMsgInterface@U?$AddTwoIntsRequest_@V?$allocator@X@std@@@simple_msgs@@@@UEAA@XZ
	??1?$MATLABROSMsgInterface@U?$AddTwoIntsResponse_@V?$allocator@X@std@@@simple_msgs@@@@UEAA@XZ
	??1?$MATLABROSMsgInterface@U?$Num_@V?$allocator@X@std@@@simple_msgs@@@@UEAA@XZ
	??1?$MessageEvent@$$CBU?$AddTwoIntsRequest_@V?$allocator@X@std@@@simple_msgs@@@ros@@QEAA@XZ
	??1?$MessageEvent@$$CBU?$AddTwoIntsResponse_@V?$allocator@X@std@@@simple_msgs@@@ros@@QEAA@XZ
	??1?$MessageEvent@$$CBU?$Num_@V?$allocator@X@std@@@simple_msgs@@@ros@@QEAA@XZ
	??1?$PreDeserializeParams@U?$AddTwoIntsRequest_@V?$allocator@X@std@@@simple_msgs@@@serialization@ros@@QEAA@XZ
	??1?$PreDeserializeParams@U?$AddTwoIntsResponse_@V?$allocator@X@std@@@simple_msgs@@@serialization@ros@@QEAA@XZ
	??1?$PreDeserializeParams@U?$Num_@V?$allocator@X@std@@@simple_msgs@@@serialization@ros@@QEAA@XZ
	??1?$ROSPublisherImpl@U?$AddTwoIntsRequest_@V?$allocator@X@std@@@simple_msgs@@Vsimple_msgs_msg_AddTwoIntsRequest_common@@@@UEAA@XZ
	??1?$ROSPublisherImpl@U?$AddTwoIntsResponse_@V?$allocator@X@std@@@simple_msgs@@Vsimple_msgs_msg_AddTwoIntsResponse_common@@@@UEAA@XZ
	??1?$ROSPublisherImpl@U?$Num_@V?$allocator@X@std@@@simple_msgs@@Vsimple_msgs_msg_Num_common@@@@UEAA@XZ
	??1?$ROSSubscriberImpl@U?$AddTwoIntsRequest_@V?$allocator@X@std@@@simple_msgs@@V?$shared_ptr@$$CBU?$AddTwoIntsRequest_@V?$allocator@X@std@@@simple_msgs@@@mwboost@@Vsimple_msgs_msg_AddTwoIntsRequest_common@@@@UEAA@XZ
	??1?$ROSSubscriberImpl@U?$AddTwoIntsResponse_@V?$allocator@X@std@@@simple_msgs@@V?$shared_ptr@$$CBU?$AddTwoIntsResponse_@V?$allocator@X@std@@@simple_msgs@@@mwboost@@Vsimple_msgs_msg_AddTwoIntsResponse_common@@@@UEAA@XZ
	??1?$ROSSubscriberImpl@U?$Num_@V?$allocator@X@std@@@simple_msgs@@V?$shared_ptr@$$CBU?$Num_@V?$allocator@X@std@@@simple_msgs@@@mwboost@@Vsimple_msgs_msg_Num_common@@@@UEAA@XZ
	??1?$ROSSvcClientImpl@UAddTwoInts@simple_msgs@@U?$AddTwoIntsRequest_@V?$allocator@X@std@@@2@U?$AddTwoIntsResponse_@V?$allocator@X@std@@@2@Vsimple_msgs_msg_AddTwoIntsRequest_common@@Vsimple_msgs_msg_AddTwoIntsResponse_common@@@@UEAA@XZ
	??1?$ROSSvcServerImpl@U?$AddTwoIntsRequest_@V?$allocator@X@std@@@simple_msgs@@U?$AddTwoIntsResponse_@V?$allocator@X@std@@@2@Vsimple_msgs_msg_AddTwoIntsRequest_common@@Vsimple_msgs_msg_AddTwoIntsResponse_common@@@@UEAA@XZ
	??1?$ServiceCallbackHelperT@U?$ServiceSpec@U?$AddTwoIntsRequest_@V?$allocator@X@std@@@simple_msgs@@U?$AddTwoIntsResponse_@V?$allocator@X@std@@@2@@ros@@@ros@@UEAA@XZ
	??1?$ServiceSpecCallParams@U?$AddTwoIntsRequest_@V?$allocator@X@std@@@simple_msgs@@U?$AddTwoIntsResponse_@V?$allocator@X@std@@@2@@ros@@QEAA@XZ
	??1?$TypedArray@_J@data@matlab@@UEAA@XZ
	??1?$TypedArray@_S@data@matlab@@UEAA@XZ
	??1?$_Alloc_construct_ptr@V?$allocator@U?$_Tree_node@U?$pair@$$CBII@std@@PEAX@std@@@std@@@std@@QEAA@XZ
	??1?$_Alloc_construct_ptr@V?$allocator@U?$_Tree_node@U?$pair@$$CBIPEAUConnectionInfo@rosbag@@@std@@PEAX@std@@@std@@@std@@QEAA@XZ
	??1?$_Alloc_construct_ptr@V?$allocator@U?$_Tree_node@U?$pair@$$CBIV?$multiset@UIndexEntry@rosbag@@U?$less@UIndexEntry@rosbag@@@std@@V?$allocator@UIndexEntry@rosbag@@@4@@std@@@std@@PEAX@std@@@std@@@std@@QEAA@XZ
	??1?$_Alloc_construct_ptr@V?$allocator@U?$_Tree_node@U?$pair@$$CBV?$basic_string@DU?$char_traits@D@std@@V?$allocator@D@2@@std@@I@std@@PEAX@std@@@std@@@std@@QEAA@XZ
	??1?$_Alloc_construct_ptr@V?$allocator@U?$_Tree_node@U?$pair@$$CBV?$basic_string@DU?$char_traits@D@std@@V?$allocator@D@2@@std@@PEAVAbstractMetaObjectBase@impl@ros1_class_loader@@@std@@PEAX@std@@@std@@@std@@QEAA@XZ
	??1?$_Alloc_construct_ptr@V?$allocator@U?$_Tree_node@U?$pair@$$CBV?$basic_string@DU?$char_traits@D@std@@V?$allocator@D@2@@std@@V12@@std@@PEAX@std@@@std@@@std@@QEAA@XZ
	??1?$_Alloc_construct_ptr@V?$allocator@U?$_Tree_node@U?$pair@$$CBV?$map@V?$basic_string@DU?$char_traits@D@std@@V?$allocator@D@2@@std@@V12@U?$less@V?$basic_string@DU?$char_traits@D@std@@V?$allocator@D@2@@std@@@2@V?$allocator@U?$pair@$$CBV?$basic_string@DU?$char_traits@D@std@@V?$allocator@D@2@@std@@V12@@std@@@2@@std@@I@std@@PEAX@std@@@std@@@std@@QEAA@XZ
	??1?$_Alloc_construct_ptr@V?$allocator@U?$_Tree_node@U?$pair@$$CB_JU?$AddTwoIntsRequest_@V?$allocator@X@std@@@simple_msgs@@@std@@PEAX@std@@@std@@@std@@QEAA@XZ
	??1?$_Alloc_construct_ptr@V?$allocator@U?$_Tree_node@UIndexEntry@rosbag@@PEAX@std@@@std@@@std@@QEAA@XZ
	??1?$_Compressed_pair@V?$allocator@D@std@@V?$_String_val@U?$_Simple_types@D@std@@@2@$00@std@@QEAA@XZ
	??1?$_Temporary_owner_del@PEAVArrayFactoryImpl@impl@data@matlab@@V<lambda_a4c5f97d4391fb4c09103a727c16defd>@@@std@@QEAA@XZ
	??1?$_Temporary_owner_del@PEAVArrayImpl@impl@data@matlab@@V<lambda_18bde30140702ba20a566c9dc393b8c0>@@@std@@QEAA@XZ
	??1?$_Temporary_owner_del@PEAVArrayImpl@impl@data@matlab@@V<lambda_49bc69670bef5877f460780ec06c4b58>@@@std@@QEAA@XZ
	??1?$_Temporary_owner_del@PEAVNameListImpl@detail@data@matlab@@V<lambda_9f3a4d0362104a3bede0405fafec76e1>@@@std@@QEAA@XZ
	??1?$_Temporary_owner_del@PEAVReferenceImpl@detail@data@matlab@@V<lambda_2615407b98e1f3a14023b76f0dedc381>@@@std@@QEAA@XZ
	??1?$_Tidy_guard@V?$vector@U?$pair@W4FunctionType@detail@data@matlab@@V?$basic_string@DU?$char_traits@D@std@@V?$allocator@D@2@@std@@@std@@V?$allocator@U?$pair@W4FunctionType@detail@data@matlab@@V?$basic_string@DU?$char_traits@D@std@@V?$allocator@D@2@@std@@@std@@@2@@std@@@std@@QEAA@XZ
	??1?$_Tidy_guard@V?$vector@V?$basic_string@DU?$char_traits@D@std@@V?$allocator@D@2@@std@@V?$allocator@V?$basic_string@DU?$char_traits@D@std@@V?$allocator@D@2@@std@@@2@@std@@@std@@QEAA@XZ
	??1?$_Tidy_guard@V?$vector@VArray@data@matlab@@V?$allocator@VArray@data@matlab@@@std@@@std@@@std@@QEAA@XZ
	??1?$_Tidy_guard@V?$vector@_KV?$allocator@_K@std@@@std@@@std@@QEAA@XZ
	??1?$_Tree@V?$_Tmap_traits@V?$basic_string@DU?$char_traits@D@std@@V?$allocator@D@2@@std@@V12@U?$less@V?$basic_string@DU?$char_traits@D@std@@V?$allocator@D@2@@std@@@2@V?$allocator@U?$pair@$$CBV?$basic_string@DU?$char_traits@D@std@@V?$allocator@D@2@@std@@V12@@std@@@2@$0A@@std@@@std@@QEAA@XZ
	??1?$_Tree@V?$_Tmap_traits@_JU?$AddTwoIntsRequest_@V?$allocator@X@std@@@simple_msgs@@U?$less@_J@std@@V?$allocator@U?$pair@$$CB_JU?$AddTwoIntsRequest_@V?$allocator@X@std@@@simple_msgs@@@std@@@4@$0A@@std@@@std@@QEAA@XZ
	??1?$_Tree@V?$_Tset_traits@UIndexEntry@rosbag@@U?$less@UIndexEntry@rosbag@@@std@@V?$allocator@UIndexEntry@rosbag@@@4@$00@std@@@std@@QEAA@XZ
	??1?$_Tree_head_scoped_ptr@V?$allocator@U?$_Tree_node@U?$pair@$$CBV?$basic_string@DU?$char_traits@D@std@@V?$allocator@D@2@@std@@V12@@std@@PEAX@std@@@std@@V?$_Tree_val@U?$_Tree_simple_types@U?$pair@$$CBV?$basic_string@DU?$char_traits@D@std@@V?$allocator@D@2@@std@@V12@@std@@@std@@@2@@std@@QEAA@XZ
	??1?$_Tree_temp_node@V?$allocator@U?$_Tree_node@U?$pair@$$CBII@std@@PEAX@std@@@std@@@std@@QEAA@XZ
	??1?$_Tree_temp_node@V?$allocator@U?$_Tree_node@U?$pair@$$CBIPEAUConnectionInfo@rosbag@@@std@@PEAX@std@@@std@@@std@@QEAA@XZ
	??1?$_Tree_temp_node@V?$allocator@U?$_Tree_node@U?$pair@$$CBIV?$multiset@UIndexEntry@rosbag@@U?$less@UIndexEntry@rosbag@@@std@@V?$allocator@UIndexEntry@rosbag@@@4@@std@@@std@@PEAX@std@@@std@@@std@@QEAA@XZ
	??1?$_Tree_temp_node@V?$allocator@U?$_Tree_node@U?$pair@$$CBV?$basic_string@DU?$char_traits@D@std@@V?$allocator@D@2@@std@@I@std@@PEAX@std@@@std@@@std@@QEAA@XZ
	??1?$_Tree_temp_node@V?$allocator@U?$_Tree_node@U?$pair@$$CBV?$basic_string@DU?$char_traits@D@std@@V?$allocator@D@2@@std@@PEAVAbstractMetaObjectBase@impl@ros1_class_loader@@@std@@PEAX@std@@@std@@@std@@QEAA@XZ
	??1?$_Tree_temp_node@V?$allocator@U?$_Tree_node@U?$pair@$$CBV?$basic_string@DU?$char_traits@D@std@@V?$allocator@D@2@@std@@V12@@std@@PEAX@std@@@std@@@std@@QEAA@XZ
	??1?$_Tree_temp_node@V?$allocator@U?$_Tree_node@U?$pair@$$CBV?$map@V?$basic_string@DU?$char_traits@D@std@@V?$allocator@D@2@@std@@V12@U?$less@V?$basic_string@DU?$char_traits@D@std@@V?$allocator@D@2@@std@@@2@V?$allocator@U?$pair@$$CBV?$basic_string@DU?$char_traits@D@std@@V?$allocator@D@2@@std@@V12@@std@@@2@@std@@I@std@@PEAX@std@@@std@@@std@@QEAA@XZ
	??1?$_Tree_temp_node@V?$allocator@U?$_Tree_node@U?$pair@$$CB_JU?$AddTwoIntsRequest_@V?$allocator@X@std@@@simple_msgs@@@std@@PEAX@std@@@std@@@std@@QEAA@XZ
	??1?$_Tree_temp_node@V?$allocator@U?$_Tree_node@UIndexEntry@rosbag@@PEAX@std@@@std@@@std@@QEAA@XZ
	??1?$_Tree_temp_node_alloc@V?$allocator@U?$_Tree_node@U?$pair@$$CBIV?$multiset@UIndexEntry@rosbag@@U?$less@UIndexEntry@rosbag@@@std@@V?$allocator@UIndexEntry@rosbag@@@4@@std@@@std@@PEAX@std@@@std@@@std@@QEAA@XZ
	??1?$_Tree_temp_node_alloc@V?$allocator@U?$_Tree_node@U?$pair@$$CBV?$basic_string@DU?$char_traits@D@std@@V?$allocator@D@2@@std@@I@std@@PEAX@std@@@std@@@std@@QEAA@XZ
	??1?$_Tree_temp_node_alloc@V?$allocator@U?$_Tree_node@U?$pair@$$CBV?$basic_string@DU?$char_traits@D@std@@V?$allocator@D@2@@std@@PEAVAbstractMetaObjectBase@impl@ros1_class_loader@@@std@@PEAX@std@@@std@@@std@@QEAA@XZ
	??1?$_Tree_temp_node_alloc@V?$allocator@U?$_Tree_node@U?$pair@$$CBV?$basic_string@DU?$char_traits@D@std@@V?$allocator@D@2@@std@@V12@@std@@PEAX@std@@@std@@@std@@QEAA@XZ
	??1?$_Tree_temp_node_alloc@V?$allocator@U?$_Tree_node@U?$pair@$$CBV?$map@V?$basic_string@DU?$char_traits@D@std@@V?$allocator@D@2@@std@@V12@U?$less@V?$basic_string@DU?$char_traits@D@std@@V?$allocator@D@2@@std@@@2@V?$allocator@U?$pair@$$CBV?$basic_string@DU?$char_traits@D@std@@V?$allocator@D@2@@std@@V12@@std@@@2@@std@@I@std@@PEAX@std@@@std@@@std@@QEAA@XZ
	??1?$_Uninitialized_backout_al@V?$allocator@U?$pair@W4FunctionType@detail@data@matlab@@V?$basic_string@DU?$char_traits@D@std@@V?$allocator@D@2@@std@@@std@@@std@@@std@@QEAA@XZ
	??1?$_Uninitialized_backout_al@V?$allocator@V?$basic_string@DU?$char_traits@D@std@@V?$allocator@D@2@@std@@@std@@@std@@QEAA@XZ
	??1?$_Uninitialized_backout_al@V?$allocator@VArray@data@matlab@@@std@@@std@@QEAA@XZ
	??1?$basic_string@DU?$char_traits@D@std@@V?$allocator@D@2@@std@@QEAA@XZ
	??1?$clone_impl@Ubad_alloc_@exception_detail@mwboost@@@exception_detail@mwboost@@UEAA@XZ
	??1?$clone_impl@Ubad_exception_@exception_detail@mwboost@@@exception_detail@mwboost@@UEAA@XZ
	??1?$function0@V?$shared_ptr@U?$AddTwoIntsRequest_@V?$allocator@X@std@@@simple_msgs@@@mwboost@@@mwboost@@QEAA@XZ
	??1?$function0@V?$shared_ptr@U?$AddTwoIntsResponse_@V?$allocator@X@std@@@simple_msgs@@@mwboost@@@mwboost@@QEAA@XZ
	??1?$function0@V?$shared_ptr@U?$Num_@V?$allocator@X@std@@@simple_msgs@@@mwboost@@@mwboost@@QEAA@XZ
	??1?$function1@XAEBVSingleSubscriberPublisher@ros@@@mwboost@@QEAA@XZ
	??1?$function@$$A6A?AV?$shared_ptr@U?$AddTwoIntsRequest_@V?$allocator@X@std@@@simple_msgs@@@mwboost@@XZ@mwboost@@QEAA@XZ
	??1?$function@$$A6A?AV?$shared_ptr@U?$AddTwoIntsResponse_@V?$allocator@X@std@@@simple_msgs@@@mwboost@@XZ@mwboost@@QEAA@XZ
	??1?$function@$$A6A?AV?$shared_ptr@U?$Num_@V?$allocator@X@std@@@simple_msgs@@@mwboost@@XZ@mwboost@@QEAA@XZ
	??1?$function@$$A6A?AVSerializedMessage@ros@@XZ@mwboost@@QEAA@XZ
	??1?$function@$$A6AXAEBV?$shared_ptr@$$CBU?$AddTwoIntsRequest_@V?$allocator@X@std@@@simple_msgs@@@mwboost@@@Z@mwboost@@QEAA@XZ
	??1?$function@$$A6AXAEBV?$shared_ptr@$$CBU?$AddTwoIntsResponse_@V?$allocator@X@std@@@simple_msgs@@@mwboost@@@Z@mwboost@@QEAA@XZ
	??1?$function@$$A6AXAEBV?$shared_ptr@$$CBU?$Num_@V?$allocator@X@std@@@simple_msgs@@@mwboost@@@Z@mwboost@@QEAA@XZ
	??1?$function@$$A6AXAEBVSingleSubscriberPublisher@ros@@@Z@mwboost@@QEAA@XZ
	??1?$function@$$A6AXV?$shared_ptr@$$CBU?$AddTwoIntsRequest_@V?$allocator@X@std@@@simple_msgs@@@mwboost@@@Z@mwboost@@QEAA@XZ
	??1?$function@$$A6AXV?$shared_ptr@$$CBU?$AddTwoIntsResponse_@V?$allocator@X@std@@@simple_msgs@@@mwboost@@@Z@mwboost@@QEAA@XZ
	??1?$function@$$A6AXV?$shared_ptr@$$CBU?$Num_@V?$allocator@X@std@@@simple_msgs@@@mwboost@@@Z@mwboost@@QEAA@XZ
	??1?$function@$$A6A_NAEAU?$AddTwoIntsRequest_@V?$allocator@X@std@@@simple_msgs@@AEAU?$AddTwoIntsResponse_@V?$allocator@X@std@@@2@@Z@mwboost@@QEAA@XZ
	??1?$map@V?$basic_string@DU?$char_traits@D@std@@V?$allocator@D@2@@std@@V12@U?$less@V?$basic_string@DU?$char_traits@D@std@@V?$allocator@D@2@@std@@@2@V?$allocator@U?$pair@$$CBV?$basic_string@DU?$char_traits@D@std@@V?$allocator@D@2@@std@@V12@@std@@@2@@std@@QEAA@XZ
	??1?$pair@W4FunctionType@detail@data@matlab@@V?$basic_string@DU?$char_traits@D@std@@V?$allocator@D@2@@std@@@std@@QEAA@XZ
	??1?$refcount_ptr@Uerror_info_container@exception_detail@mwboost@@@exception_detail@mwboost@@QEAA@XZ
	??1?$shared_ptr@$$CBU?$AddTwoIntsRequest_@V?$allocator@X@std@@@simple_msgs@@@mwboost@@QEAA@XZ
	??1?$shared_ptr@$$CBU?$AddTwoIntsResponse_@V?$allocator@X@std@@@simple_msgs@@@mwboost@@QEAA@XZ
	??1?$shared_ptr@$$CBU?$Num_@V?$allocator@X@std@@@simple_msgs@@@mwboost@@QEAA@XZ
	??1?$shared_ptr@$$CBX@mwboost@@QEAA@XZ
	??1?$shared_ptr@U?$AddTwoIntsRequest_@V?$allocator@X@std@@@simple_msgs@@@mwboost@@QEAA@XZ
	??1?$shared_ptr@U?$AddTwoIntsResponse_@V?$allocator@X@std@@@simple_msgs@@@mwboost@@QEAA@XZ
	??1?$shared_ptr@U?$Num_@V?$allocator@X@std@@@simple_msgs@@@mwboost@@QEAA@XZ
	??1?$shared_ptr@V?$ServiceCallbackHelperT@U?$ServiceSpec@U?$AddTwoIntsRequest_@V?$allocator@X@std@@@simple_msgs@@U?$AddTwoIntsResponse_@V?$allocator@X@std@@@2@@ros@@@ros@@@mwboost@@QEAA@XZ
	??1?$shared_ptr@V?$SubscriptionCallbackHelperT@AEBV?$shared_ptr@$$CBU?$AddTwoIntsRequest_@V?$allocator@X@std@@@simple_msgs@@@mwboost@@X@ros@@@mwboost@@QEAA@XZ
	??1?$shared_ptr@V?$SubscriptionCallbackHelperT@AEBV?$shared_ptr@$$CBU?$AddTwoIntsResponse_@V?$allocator@X@std@@@simple_msgs@@@mwboost@@X@ros@@@mwboost@@QEAA@XZ
	??1?$shared_ptr@V?$SubscriptionCallbackHelperT@AEBV?$shared_ptr@$$CBU?$Num_@V?$allocator@X@std@@@simple_msgs@@@mwboost@@X@ros@@@mwboost@@QEAA@XZ
	??1?$shared_ptr@V?$map@V?$basic_string@DU?$char_traits@D@std@@V?$allocator@D@2@@std@@V12@U?$less@V?$basic_string@DU?$char_traits@D@std@@V?$allocator@D@2@@std@@@2@V?$allocator@U?$pair@$$CBV?$basic_string@DU?$char_traits@D@std@@V?$allocator@D@2@@std@@V12@@std@@@2@@std@@@mwboost@@QEAA@XZ
	??1?$shared_ptr@VArrayFactoryImpl@impl@data@matlab@@@std@@QEAA@XZ
	??1?$shared_ptr@VMATLABPublisherInterface@@@std@@QEAA@XZ
	??1?$shared_ptr@VMATLABRosbagWriterInterface@@@std@@QEAA@XZ
	??1?$shared_ptr@VMATLABSubscriberInterface@@@std@@QEAA@XZ
	??1?$shared_ptr@VNodeHandle@ros@@@std@@QEAA@XZ
	??1?$shared_ptr@VReferenceImpl@detail@data@matlab@@@std@@QEAA@XZ
	??1?$unique_lock@Vmutex@mwboost@@@mwboost@@QEAA@XZ
	??1?$vector@V?$basic_string@DU?$char_traits@D@std@@V?$allocator@D@2@@std@@V?$allocator@V?$basic_string@DU?$char_traits@D@std@@V?$allocator@D@2@@std@@@2@@std@@QEAA@XZ
	??1?$vector@VArray@data@matlab@@V?$allocator@VArray@data@matlab@@@std@@@std@@QEAA@XZ
	??1?$vector@_KV?$allocator@_K@std@@@std@@QEAA@XZ
	??1?$wrapexcept@Vbad_function_call@mwboost@@@mwboost@@UEAA@XZ
	??1?$wrapexcept@Vthread_resource_error@mwboost@@@mwboost@@UEAA@XZ
	??1Array@data@matlab@@UEAA@XZ
	??1BagException@rosbag@@UEAA@XZ
	??1CharArray@data@matlab@@UEAA@XZ
	??1Exception@matlab@@UEAA@XZ
	??1MATLABSvcClientInterface@@UEAA@XZ
	??1MATLABSvcServerInterface@@UEAA@XZ
	??1NameList@ArrayFactory@data@matlab@@QEAA@XZ
	??1Struct@data@matlab@@QEAA@XZ
	??1StructArray@data@matlab@@UEAA@XZ
	??1_Ref_count_base@std@@UEAA@XZ
	??1_Sentry_base@?$basic_ostream@DU?$char_traits@D@std@@@std@@QEAA@XZ
	??1bad_alloc_@exception_detail@mwboost@@UEAA@XZ
	??1bad_array_new_length@std@@UEAA@XZ
	??1bad_exception_@exception_detail@mwboost@@UEAA@XZ
	??1bad_function_call@mwboost@@UEAA@XZ
	??1clone_base@exception_detail@mwboost@@UEAA@XZ
	??1deleter@?$wrapexcept@Vbad_function_call@mwboost@@@mwboost@@QEAA@XZ
	??1deleter@?$wrapexcept@Vthread_resource_error@mwboost@@@mwboost@@QEAA@XZ
	??1exception@std@@UEAA@XZ
	??1invalid_argument@std@@UEAA@XZ
	??1runtime_error@std@@UEAA@XZ
	??1sentry@?$basic_ostream@DU?$char_traits@D@std@@@std@@QEAA@XZ
	??1shared_count@detail@mwboost@@QEAA@XZ
	??1simple_msgs_AddTwoInts_service@@UEAA@XZ
	??1simple_msgs_Num_message@@UEAA@XZ
	??1simple_msgs_msg_AddTwoIntsRequest_common@@UEAA@XZ
	??1simple_msgs_msg_AddTwoIntsResponse_common@@UEAA@XZ
	??1simple_msgs_msg_Num_common@@UEAA@XZ
	??1thread_resource_error@mwboost@@UEAA@XZ
	??4?$ArrayElementTypedRef@VArray@data@matlab@@$0A@@data@matlab@@QEAAAEAV012@VArray@12@@Z
	??4?$MATLABROSMsgInterface@U?$AddTwoIntsRequest_@V?$allocator@X@std@@@simple_msgs@@@@QEAAAEAV0@AEBV0@@Z
	??4?$MATLABROSMsgInterface@U?$AddTwoIntsResponse_@V?$allocator@X@std@@@simple_msgs@@@@QEAAAEAV0@AEBV0@@Z
	??4?$MATLABROSMsgInterface@U?$Num_@V?$allocator@X@std@@@simple_msgs@@@@QEAAAEAV0@AEBV0@@Z
	??4?$basic_string@DU?$char_traits@D@std@@V?$allocator@D@2@@std@@QEAAAEAV01@$$QEAV01@@Z
	??4?$refcount_ptr@Uerror_info_container@exception_detail@mwboost@@@exception_detail@mwboost@@QEAAAEAV012@AEBV012@@Z
	??4?$shared_ptr@$$CBU?$AddTwoIntsRequest_@V?$allocator@X@std@@@simple_msgs@@@mwboost@@QEAAAEAV01@AEBV01@@Z
	??4?$shared_ptr@$$CBU?$AddTwoIntsResponse_@V?$allocator@X@std@@@simple_msgs@@@mwboost@@QEAAAEAV01@AEBV01@@Z
	??4?$shared_ptr@$$CBU?$Num_@V?$allocator@X@std@@@simple_msgs@@@mwboost@@QEAAAEAV01@AEBV01@@Z
	??4?$shared_ptr@U?$AddTwoIntsRequest_@V?$allocator@X@std@@@simple_msgs@@@mwboost@@QEAAAEAV01@$$QEAV01@@Z
	??4?$shared_ptr@U?$AddTwoIntsRequest_@V?$allocator@X@std@@@simple_msgs@@@mwboost@@QEAAAEAV01@AEBV01@@Z
	??4?$shared_ptr@U?$AddTwoIntsResponse_@V?$allocator@X@std@@@simple_msgs@@@mwboost@@QEAAAEAV01@$$QEAV01@@Z
	??4?$shared_ptr@U?$AddTwoIntsResponse_@V?$allocator@X@std@@@simple_msgs@@@mwboost@@QEAAAEAV01@AEBV01@@Z
	??4?$shared_ptr@U?$Num_@V?$allocator@X@std@@@simple_msgs@@@mwboost@@QEAAAEAV01@$$QEAV01@@Z
	??4?$shared_ptr@U?$Num_@V?$allocator@X@std@@@simple_msgs@@@mwboost@@QEAAAEAV01@AEBV01@@Z
	??4?$shared_ptr@V?$map@V?$basic_string@DU?$char_traits@D@std@@V?$allocator@D@2@@std@@V12@U?$less@V?$basic_string@DU?$char_traits@D@std@@V?$allocator@D@2@@std@@@2@V?$allocator@U?$pair@$$CBV?$basic_string@DU?$char_traits@D@std@@V?$allocator@D@2@@std@@V12@@std@@@2@@std@@@mwboost@@QEAAAEAV01@$$QEAV01@@Z
	??4?$shared_ptr@V?$map@V?$basic_string@DU?$char_traits@D@std@@V?$allocator@D@2@@std@@V12@U?$less@V?$basic_string@DU?$char_traits@D@std@@V?$allocator@D@2@@std@@@2@V?$allocator@U?$pair@$$CBV?$basic_string@DU?$char_traits@D@std@@V?$allocator@D@2@@std@@V12@@std@@@2@@std@@@mwboost@@QEAAAEAV01@AEBV01@@Z
	??4?$shared_ptr@VArrayFactoryImpl@impl@data@matlab@@@std@@QEAAAEAV01@$$QEAV01@@Z
	??4?$shared_ptr@VArrayImpl@impl@data@matlab@@@std@@QEAAAEAV01@$$QEAV01@@Z
	??4?$shared_ptr@VPublisher@ros@@@std@@QEAAAEAV01@$$QEAV01@@Z
	??4?$shared_ptr@VServiceClient@ros@@@std@@QEAAAEAV01@$$QEAV01@@Z
	??4?$shared_ptr@VServiceServer@ros@@@std@@QEAAAEAV01@$$QEAV01@@Z
	??4?$shared_ptr@VSubscriber@ros@@@std@@QEAAAEAV01@$$QEAV01@@Z
	??4Array@data@matlab@@QEAAAEAV012@$$QEAV012@@Z
	??4simple_msgs_AddTwoInts_service@@QEAAAEAV0@AEBV0@@Z
	??4simple_msgs_Num_message@@QEAAAEAV0@AEBV0@@Z
	??4simple_msgs_msg_AddTwoIntsRequest_common@@QEAAAEAV0@AEBV0@@Z
	??4simple_msgs_msg_AddTwoIntsResponse_common@@QEAAAEAV0@AEBV0@@Z
	??4simple_msgs_msg_Num_common@@QEAAAEAV0@AEBV0@@Z
	??8system@mwboost@@YA_NAEBVerror_condition@01@0@Z
	??A?$ArrayElementTypedRef@VStruct@data@matlab@@$00@data@matlab@@QEAA?AV?$ArrayElementTypedRef@VArray@data@matlab@@$00@12@V?$basic_string@DU?$char_traits@D@std@@V?$allocator@D@2@@std@@@Z
	??A?$ArrayElementTypedRef@VStruct@data@matlab@@$0A@@data@matlab@@QEAA?AV?$ArrayElementTypedRef@VArray@data@matlab@@$0A@@12@V?$basic_string@DU?$char_traits@D@std@@V?$allocator@D@2@@std@@@Z
	??A?$TypedArray@VStruct@data@matlab@@@data@matlab@@QEAA?AV?$ArrayElementTypedRef@VStruct@data@matlab@@$0A@@12@_K@Z
	??A?$TypedArray@VStruct@data@matlab@@@data@matlab@@QEBA?AV?$ArrayElementTypedRef@VStruct@data@matlab@@$00@12@_K@Z
	??A?$TypedArray@_J@data@matlab@@QEBA?AV?$ArrayElementTypedRef@_J$00@12@_K@Z
	??AStruct@data@matlab@@QEBA?AVArray@12@V?$basic_string@DU?$char_traits@D@std@@V?$allocator@D@2@@std@@@Z
	??B?$ArrayElementTypedRef@VStruct@data@matlab@@$00@data@matlab@@QEBA?AVStruct@12@XZ
	??B?$ArrayElementTypedRef@VStruct@data@matlab@@$0A@@data@matlab@@QEBA?AVStruct@12@XZ
	??B?$ArrayElementTypedRef@_J$00@data@matlab@@QEBA_JXZ
	??C?$reverse_iterator@V?$_Vector_const_iterator@V?$_Vector_val@U?$_Simple_types@U?$pair@W4FunctionType@detail@data@matlab@@V?$basic_string@DU?$char_traits@D@std@@V?$allocator@D@2@@std@@@std@@@std@@@std@@@std@@@std@@QEBAPEBU?$pair@W4FunctionType@detail@data@matlab@@V?$basic_string@DU?$char_traits@D@std@@V?$allocator@D@2@@std@@@1@XZ
	??E?$_Tree_unchecked_const_iterator@V?$_Tree_val@U?$_Tree_simple_types@U?$pair@$$CBV?$basic_string@DU?$char_traits@D@std@@V?$allocator@D@2@@std@@V12@@std@@@std@@@std@@U_Iterator_base0@2@@std@@QEAAAEAV01@XZ
	??E?$_Tree_unchecked_const_iterator@V?$_Tree_val@U?$_Tree_simple_types@U?$pair@$$CB_JU?$AddTwoIntsRequest_@V?$allocator@X@std@@@simple_msgs@@@std@@@std@@@std@@U_Iterator_base0@2@@std@@QEAAAEAV01@XZ
	??F?$_Tree_unchecked_const_iterator@V?$_Tree_val@U?$_Tree_simple_types@UIndexEntry@rosbag@@@std@@@std@@U_Iterator_base0@2@@std@@QEAAAEAV01@XZ
	??R<lambda_18bde30140702ba20a566c9dc393b8c0>@@QEBA@PEAVArrayImpl@impl@data@matlab@@@Z
	??R<lambda_2615407b98e1f3a14023b76f0dedc381>@@QEBA@PEAVReferenceImpl@detail@data@matlab@@@Z
	??R<lambda_49bc69670bef5877f460780ec06c4b58>@@QEBA@PEAVArrayImpl@impl@data@matlab@@@Z
	??R<lambda_9f3a4d0362104a3bede0405fafec76e1>@@QEBA@PEAVNameListImpl@detail@data@matlab@@@Z
	??R<lambda_a4c5f97d4391fb4c09103a727c16defd>@@QEBA@PEAVArrayFactoryImpl@impl@data@matlab@@@Z
	??R?$bind_t@VSerializedMessage@ros@@P6A?AV12@AEBU?$AddTwoIntsRequest_@V?$allocator@X@std@@@simple_msgs@@@ZV?$list1@V?$reference_wrapper@U?$AddTwoIntsRequest_@V?$allocator@X@std@@@simple_msgs@@@mwboost@@@_bi@mwboost@@@_bi@mwboost@@QEAA?AVSerializedMessage@ros@@XZ
	??R?$bind_t@VSerializedMessage@ros@@P6A?AV12@AEBU?$AddTwoIntsResponse_@V?$allocator@X@std@@@simple_msgs@@@ZV?$list1@V?$reference_wrapper@U?$AddTwoIntsResponse_@V?$allocator@X@std@@@simple_msgs@@@mwboost@@@_bi@mwboost@@@_bi@mwboost@@QEAA?AVSerializedMessage@ros@@XZ
	??R?$bind_t@VSerializedMessage@ros@@P6A?AV12@AEBU?$Num_@V?$allocator@X@std@@@simple_msgs@@@ZV?$list1@V?$reference_wrapper@U?$Num_@V?$allocator@X@std@@@simple_msgs@@@mwboost@@@_bi@mwboost@@@_bi@mwboost@@QEAA?AVSerializedMessage@ros@@XZ
	??R?$checked_array_deleter@E@mwboost@@QEBAXPEAE@Z
	??R?$function0@V?$shared_ptr@U?$AddTwoIntsRequest_@V?$allocator@X@std@@@simple_msgs@@@mwboost@@@mwboost@@QEBA?AV?$shared_ptr@U?$AddTwoIntsRequest_@V?$allocator@X@std@@@simple_msgs@@@1@XZ
	??R?$function0@V?$shared_ptr@U?$AddTwoIntsResponse_@V?$allocator@X@std@@@simple_msgs@@@mwboost@@@mwboost@@QEBA?AV?$shared_ptr@U?$AddTwoIntsResponse_@V?$allocator@X@std@@@simple_msgs@@@1@XZ
	??R?$function0@V?$shared_ptr@U?$Num_@V?$allocator@X@std@@@simple_msgs@@@mwboost@@@mwboost@@QEBA?AV?$shared_ptr@U?$Num_@V?$allocator@X@std@@@simple_msgs@@@1@XZ
	??R?$function1@XAEBV?$shared_ptr@$$CBU?$AddTwoIntsRequest_@V?$allocator@X@std@@@simple_msgs@@@mwboost@@@mwboost@@QEBAXAEBV?$shared_ptr@$$CBU?$AddTwoIntsRequest_@V?$allocator@X@std@@@simple_msgs@@@1@@Z
	??R?$function1@XAEBV?$shared_ptr@$$CBU?$AddTwoIntsResponse_@V?$allocator@X@std@@@simple_msgs@@@mwboost@@@mwboost@@QEBAXAEBV?$shared_ptr@$$CBU?$AddTwoIntsResponse_@V?$allocator@X@std@@@simple_msgs@@@1@@Z
	??R?$function1@XAEBV?$shared_ptr@$$CBU?$Num_@V?$allocator@X@std@@@simple_msgs@@@mwboost@@@mwboost@@QEBAXAEBV?$shared_ptr@$$CBU?$Num_@V?$allocator@X@std@@@simple_msgs@@@1@@Z
	??R?$function1@XV?$shared_ptr@$$CBU?$AddTwoIntsRequest_@V?$allocator@X@std@@@simple_msgs@@@mwboost@@@mwboost@@QEBAXV?$shared_ptr@$$CBU?$AddTwoIntsRequest_@V?$allocator@X@std@@@simple_msgs@@@1@@Z
	??R?$function1@XV?$shared_ptr@$$CBU?$AddTwoIntsResponse_@V?$allocator@X@std@@@simple_msgs@@@mwboost@@@mwboost@@QEBAXV?$shared_ptr@$$CBU?$AddTwoIntsResponse_@V?$allocator@X@std@@@simple_msgs@@@1@@Z
	??R?$function1@XV?$shared_ptr@$$CBU?$Num_@V?$allocator@X@std@@@simple_msgs@@@mwboost@@@mwboost@@QEBAXV?$shared_ptr@$$CBU?$Num_@V?$allocator@X@std@@@simple_msgs@@@1@@Z
	??R?$function2@_NAEAU?$AddTwoIntsRequest_@V?$allocator@X@std@@@simple_msgs@@AEAU?$AddTwoIntsResponse_@V?$allocator@X@std@@@2@@mwboost@@QEBA_NAEAU?$AddTwoIntsRequest_@V?$allocator@X@std@@@simple_msgs@@AEAU?$AddTwoIntsResponse_@V?$allocator@X@std@@@3@@Z
	??_D?$clone_impl@Ubad_alloc_@exception_detail@mwboost@@@exception_detail@mwboost@@QEAAXXZ
	??_D?$clone_impl@Ubad_exception_@exception_detail@mwboost@@@exception_detail@mwboost@@QEAAXXZ
	?_Adjust_manually_vector_aligned@std@@YAXAEAPEAXAEA_K@Z
	?_Alloc_sentinel_and_proxy@?$_Tree@V?$_Tmap_traits@V?$basic_string@DU?$char_traits@D@std@@V?$allocator@D@2@@std@@V12@U?$less@V?$basic_string@DU?$char_traits@D@std@@V?$allocator@D@2@@std@@@2@V?$allocator@U?$pair@$$CBV?$basic_string@DU?$char_traits@D@std@@V?$allocator@D@2@@std@@V12@@std@@@2@$0A@@std@@@std@@IEAAXXZ
	?_Alloc_sentinel_and_proxy@?$_Tree@V?$_Tmap_traits@_JU?$AddTwoIntsRequest_@V?$allocator@X@std@@@simple_msgs@@U?$less@_J@std@@V?$allocator@U?$pair@$$CB_JU?$AddTwoIntsRequest_@V?$allocator@X@std@@@simple_msgs@@@std@@@4@$0A@@std@@@std@@IEAAXXZ
	?_Alloc_sentinel_and_proxy@?$_Tree@V?$_Tset_traits@UIndexEntry@rosbag@@U?$less@UIndexEntry@rosbag@@@std@@V?$allocator@UIndexEntry@rosbag@@@4@$00@std@@@std@@IEAAXXZ
	?_Buy_nonzero@?$vector@U?$pair@W4FunctionType@detail@data@matlab@@V?$basic_string@DU?$char_traits@D@std@@V?$allocator@D@2@@std@@@std@@V?$allocator@U?$pair@W4FunctionType@detail@data@matlab@@V?$basic_string@DU?$char_traits@D@std@@V?$allocator@D@2@@std@@@std@@@2@@std@@AEAAX_K@Z
	?_Buy_nonzero@?$vector@V?$basic_string@DU?$char_traits@D@std@@V?$allocator@D@2@@std@@V?$allocator@V?$basic_string@DU?$char_traits@D@std@@V?$allocator@D@2@@std@@@2@@std@@AEAAX_K@Z
	?_Buy_nonzero@?$vector@VArray@data@matlab@@V?$allocator@VArray@data@matlab@@@std@@@std@@AEAAX_K@Z
	?_Buy_nonzero@?$vector@_KV?$allocator@_K@std@@@std@@AEAAX_K@Z
	?_Buy_raw@?$vector@U?$pair@W4FunctionType@detail@data@matlab@@V?$basic_string@DU?$char_traits@D@std@@V?$allocator@D@2@@std@@@std@@V?$allocator@U?$pair@W4FunctionType@detail@data@matlab@@V?$basic_string@DU?$char_traits@D@std@@V?$allocator@D@2@@std@@@std@@@2@@std@@AEAAX_K@Z
	?_Buy_raw@?$vector@V?$basic_string@DU?$char_traits@D@std@@V?$allocator@D@2@@std@@V?$allocator@V?$basic_string@DU?$char_traits@D@std@@V?$allocator@D@2@@std@@@2@@std@@AEAAX_K@Z
	?_Buy_raw@?$vector@VArray@data@matlab@@V?$allocator@VArray@data@matlab@@@std@@@std@@AEAAX_K@Z
	?_Buy_raw@?$vector@_KV?$allocator@_K@std@@@std@@AEAAX_K@Z
	?_Calculate_growth@?$basic_string@DU?$char_traits@D@std@@V?$allocator@D@2@@std@@CA_K_K00@Z
	?_Check_grow_by_1@?$_Tree@V?$_Tmap_traits@IIU?$less@I@std@@V?$allocator@U?$pair@$$CBII@std@@@2@$0A@@std@@@std@@IEAAXXZ
	?_Check_grow_by_1@?$_Tree@V?$_Tmap_traits@IPEAUConnectionInfo@rosbag@@U?$less@I@std@@V?$allocator@U?$pair@$$CBIPEAUConnectionInfo@rosbag@@@std@@@4@$0A@@std@@@std@@IEAAXXZ
	?_Check_grow_by_1@?$_Tree@V?$_Tmap_traits@IV?$multiset@UIndexEntry@rosbag@@U?$less@UIndexEntry@rosbag@@@std@@V?$allocator@UIndexEntry@rosbag@@@4@@std@@U?$less@I@2@V?$allocator@U?$pair@$$CBIV?$multiset@UIndexEntry@rosbag@@U?$less@UIndexEntry@rosbag@@@std@@V?$allocator@UIndexEntry@rosbag@@@4@@std@@@std@@@2@$0A@@std@@@std@@IEAAXXZ
	?_Check_grow_by_1@?$_Tree@V?$_Tmap_traits@V?$basic_string@DU?$char_traits@D@std@@V?$allocator@D@2@@std@@IU?$less@V?$basic_string@DU?$char_traits@D@std@@V?$allocator@D@2@@std@@@2@V?$allocator@U?$pair@$$CBV?$basic_string@DU?$char_traits@D@std@@V?$allocator@D@2@@std@@I@std@@@2@$0A@@std@@@std@@IEAAXXZ
	?_Check_grow_by_1@?$_Tree@V?$_Tmap_traits@V?$basic_string@DU?$char_traits@D@std@@V?$allocator@D@2@@std@@PEAVAbstractMetaObjectBase@impl@ros1_class_loader@@U?$less@V?$basic_string@DU?$char_traits@D@std@@V?$allocator@D@2@@std@@@2@V?$allocator@U?$pair@$$CBV?$basic_string@DU?$char_traits@D@std@@V?$allocator@D@2@@std@@PEAVAbstractMetaObjectBase@impl@ros1_class_loader@@@std@@@2@$0A@@std@@@std@@IEAAXXZ
	?_Check_grow_by_1@?$_Tree@V?$_Tmap_traits@V?$basic_string@DU?$char_traits@D@std@@V?$allocator@D@2@@std@@V12@U?$less@V?$basic_string@DU?$char_traits@D@std@@V?$allocator@D@2@@std@@@2@V?$allocator@U?$pair@$$CBV?$basic_string@DU?$char_traits@D@std@@V?$allocator@D@2@@std@@V12@@std@@@2@$0A@@std@@@std@@IEAAXXZ
	?_Check_grow_by_1@?$_Tree@V?$_Tmap_traits@V?$map@V?$basic_string@DU?$char_traits@D@std@@V?$allocator@D@2@@std@@V12@U?$less@V?$basic_string@DU?$char_traits@D@std@@V?$allocator@D@2@@std@@@2@V?$allocator@U?$pair@$$CBV?$basic_string@DU?$char_traits@D@std@@V?$allocator@D@2@@std@@V12@@std@@@2@@std@@IU?$less@V?$map@V?$basic_string@DU?$char_traits@D@std@@V?$allocator@D@2@@std@@V12@U?$less@V?$basic_string@DU?$char_traits@D@std@@V?$allocator@D@2@@std@@@2@V?$allocator@U?$pair@$$CBV?$basic_string@DU?$char_traits@D@std@@V?$allocator@D@2@@std@@V12@@std@@@2@@std@@@2@V?$allocator@U?$pair@$$CBV?$map@V?$basic_string@DU?$char_traits@D@std@@V?$allocator@D@2@@std@@V12@U?$less@V?$basic_string@DU?$char_traits@D@std@@V?$allocator@D@2@@std@@@2@V?$allocator@U?$pair@$$CBV?$basic_string@DU?$char_traits@D@std@@V?$allocator@D@2@@std@@V12@@std@@@2@@std@@I@std@@@2@$0A@@std@@@std@@IEAAXXZ
	?_Check_grow_by_1@?$_Tree@V?$_Tmap_traits@_JU?$AddTwoIntsRequest_@V?$allocator@X@std@@@simple_msgs@@U?$less@_J@std@@V?$allocator@U?$pair@$$CB_JU?$AddTwoIntsRequest_@V?$allocator@X@std@@@simple_msgs@@@std@@@4@$0A@@std@@@std@@IEAAXXZ
	?_Check_grow_by_1@?$_Tree@V?$_Tset_traits@UIndexEntry@rosbag@@U?$less@UIndexEntry@rosbag@@@std@@V?$allocator@UIndexEntry@rosbag@@@4@$00@std@@@std@@IEAAXXZ
	?_Construct_lv_contents@?$basic_string@DU?$char_traits@D@std@@V?$allocator@D@2@@std@@AEAAXAEBV12@@Z
	?_Copy_assign@?$_Tree@V?$_Tmap_traits@V?$basic_string@DU?$char_traits@D@std@@V?$allocator@D@2@@std@@V12@U?$less@V?$basic_string@DU?$char_traits@D@std@@V?$allocator@D@2@@std@@@2@V?$allocator@U?$pair@$$CBV?$basic_string@DU?$char_traits@D@std@@V?$allocator@D@2@@std@@V12@@std@@@2@$0A@@std@@@std@@AEAAXAEBV12@U?$integral_constant@_N$0A@@2@@Z
	?_Copy_assign@?$basic_string@DU?$char_traits@D@std@@V?$allocator@D@2@@std@@AEAAXAEBV12@U?$integral_constant@_N$0A@@2@@Z
	?_Decref@_Ref_count_base@std@@QEAAXXZ
	?_Delete_this@?$_Ref_count_obj2@V?$ROSBagWriterImpl@U?$AddTwoIntsRequest_@V?$allocator@X@std@@@simple_msgs@@Vsimple_msgs_msg_AddTwoIntsRequest_common@@@@@std@@EEAAXXZ
	?_Delete_this@?$_Ref_count_obj2@V?$ROSBagWriterImpl@U?$AddTwoIntsResponse_@V?$allocator@X@std@@@simple_msgs@@Vsimple_msgs_msg_AddTwoIntsResponse_common@@@@@std@@EEAAXXZ
	?_Delete_this@?$_Ref_count_obj2@V?$ROSBagWriterImpl@U?$Num_@V?$allocator@X@std@@@simple_msgs@@Vsimple_msgs_msg_Num_common@@@@@std@@EEAAXXZ
	?_Delete_this@?$_Ref_count_obj2@V?$ROSPublisherImpl@U?$AddTwoIntsRequest_@V?$allocator@X@std@@@simple_msgs@@Vsimple_msgs_msg_AddTwoIntsRequest_common@@@@@std@@EEAAXXZ
	?_Delete_this@?$_Ref_count_obj2@V?$ROSPublisherImpl@U?$AddTwoIntsResponse_@V?$allocator@X@std@@@simple_msgs@@Vsimple_msgs_msg_AddTwoIntsResponse_common@@@@@std@@EEAAXXZ
	?_Delete_this@?$_Ref_count_obj2@V?$ROSPublisherImpl@U?$Num_@V?$allocator@X@std@@@simple_msgs@@Vsimple_msgs_msg_Num_common@@@@@std@@EEAAXXZ
	?_Delete_this@?$_Ref_count_obj2@V?$ROSSubscriberImpl@U?$AddTwoIntsRequest_@V?$allocator@X@std@@@simple_msgs@@V?$shared_ptr@$$CBU?$AddTwoIntsRequest_@V?$allocator@X@std@@@simple_msgs@@@mwboost@@Vsimple_msgs_msg_AddTwoIntsRequest_common@@@@@std@@EEAAXXZ
	?_Delete_this@?$_Ref_count_obj2@V?$ROSSubscriberImpl@U?$AddTwoIntsResponse_@V?$allocator@X@std@@@simple_msgs@@V?$shared_ptr@$$CBU?$AddTwoIntsResponse_@V?$allocator@X@std@@@simple_msgs@@@mwboost@@Vsimple_msgs_msg_AddTwoIntsResponse_common@@@@@std@@EEAAXXZ
	?_Delete_this@?$_Ref_count_obj2@V?$ROSSubscriberImpl@U?$Num_@V?$allocator@X@std@@@simple_msgs@@V?$shared_ptr@$$CBU?$Num_@V?$allocator@X@std@@@simple_msgs@@@mwboost@@Vsimple_msgs_msg_Num_common@@@@@std@@EEAAXXZ
	?_Delete_this@?$_Ref_count_obj2@V?$ROSSvcClientImpl@UAddTwoInts@simple_msgs@@U?$AddTwoIntsRequest_@V?$allocator@X@std@@@2@U?$AddTwoIntsResponse_@V?$allocator@X@std@@@2@Vsimple_msgs_msg_AddTwoIntsRequest_common@@Vsimple_msgs_msg_AddTwoIntsResponse_common@@@@@std@@EEAAXXZ
	?_Delete_this@?$_Ref_count_obj2@V?$ROSSvcServerImpl@U?$AddTwoIntsRequest_@V?$allocator@X@std@@@simple_msgs@@U?$AddTwoIntsResponse_@V?$allocator@X@std@@@2@Vsimple_msgs_msg_AddTwoIntsRequest_common@@Vsimple_msgs_msg_AddTwoIntsResponse_common@@@@@std@@EEAAXXZ
	?_Delete_this@?$_Ref_count_obj2@VPublisher@ros@@@std@@EEAAXXZ
	?_Delete_this@?$_Ref_count_obj2@VServiceClient@ros@@@std@@EEAAXXZ
	?_Delete_this@?$_Ref_count_obj2@VServiceServer@ros@@@std@@EEAAXXZ
	?_Delete_this@?$_Ref_count_obj2@VSubscriber@ros@@@std@@EEAAXXZ
	?_Delete_this@?$_Ref_count_resource@PEAVArrayFactoryImpl@impl@data@matlab@@V<lambda_a4c5f97d4391fb4c09103a727c16defd>@@@std@@EEAAXXZ
	?_Delete_this@?$_Ref_count_resource@PEAVArrayImpl@impl@data@matlab@@V<lambda_18bde30140702ba20a566c9dc393b8c0>@@@std@@EEAAXXZ
	?_Delete_this@?$_Ref_count_resource@PEAVArrayImpl@impl@data@matlab@@V<lambda_49bc69670bef5877f460780ec06c4b58>@@@std@@EEAAXXZ
	?_Delete_this@?$_Ref_count_resource@PEAVNameListImpl@detail@data@matlab@@V<lambda_9f3a4d0362104a3bede0405fafec76e1>@@@std@@EEAAXXZ
	?_Delete_this@?$_Ref_count_resource@PEAVReferenceImpl@detail@data@matlab@@V<lambda_2615407b98e1f3a14023b76f0dedc381>@@@std@@EEAAXXZ
	?_Destroy@?$_Ref_count_obj2@V?$ROSBagWriterImpl@U?$AddTwoIntsRequest_@V?$allocator@X@std@@@simple_msgs@@Vsimple_msgs_msg_AddTwoIntsRequest_common@@@@@std@@EEAAXXZ
	?_Destroy@?$_Ref_count_obj2@V?$ROSBagWriterImpl@U?$AddTwoIntsResponse_@V?$allocator@X@std@@@simple_msgs@@Vsimple_msgs_msg_AddTwoIntsResponse_common@@@@@std@@EEAAXXZ
	?_Destroy@?$_Ref_count_obj2@V?$ROSBagWriterImpl@U?$Num_@V?$allocator@X@std@@@simple_msgs@@Vsimple_msgs_msg_Num_common@@@@@std@@EEAAXXZ
	?_Destroy@?$_Ref_count_obj2@V?$ROSPublisherImpl@U?$AddTwoIntsRequest_@V?$allocator@X@std@@@simple_msgs@@Vsimple_msgs_msg_AddTwoIntsRequest_common@@@@@std@@EEAAXXZ
	?_Destroy@?$_Ref_count_obj2@V?$ROSPublisherImpl@U?$AddTwoIntsResponse_@V?$allocator@X@std@@@simple_msgs@@Vsimple_msgs_msg_AddTwoIntsResponse_common@@@@@std@@EEAAXXZ
	?_Destroy@?$_Ref_count_obj2@V?$ROSPublisherImpl@U?$Num_@V?$allocator@X@std@@@simple_msgs@@Vsimple_msgs_msg_Num_common@@@@@std@@EEAAXXZ
	?_Destroy@?$_Ref_count_obj2@V?$ROSSubscriberImpl@U?$AddTwoIntsRequest_@V?$allocator@X@std@@@simple_msgs@@V?$shared_ptr@$$CBU?$AddTwoIntsRequest_@V?$allocator@X@std@@@simple_msgs@@@mwboost@@Vsimple_msgs_msg_AddTwoIntsRequest_common@@@@@std@@EEAAXXZ
	?_Destroy@?$_Ref_count_obj2@V?$ROSSubscriberImpl@U?$AddTwoIntsResponse_@V?$allocator@X@std@@@simple_msgs@@V?$shared_ptr@$$CBU?$AddTwoIntsResponse_@V?$allocator@X@std@@@simple_msgs@@@mwboost@@Vsimple_msgs_msg_AddTwoIntsResponse_common@@@@@std@@EEAAXXZ
	?_Destroy@?$_Ref_count_obj2@V?$ROSSubscriberImpl@U?$Num_@V?$allocator@X@std@@@simple_msgs@@V?$shared_ptr@$$CBU?$Num_@V?$allocator@X@std@@@simple_msgs@@@mwboost@@Vsimple_msgs_msg_Num_common@@@@@std@@EEAAXXZ
	?_Destroy@?$_Ref_count_obj2@V?$ROSSvcClientImpl@UAddTwoInts@simple_msgs@@U?$AddTwoIntsRequest_@V?$allocator@X@std@@@2@U?$AddTwoIntsResponse_@V?$allocator@X@std@@@2@Vsimple_msgs_msg_AddTwoIntsRequest_common@@Vsimple_msgs_msg_AddTwoIntsResponse_common@@@@@std@@EEAAXXZ
	?_Destroy@?$_Ref_count_obj2@V?$ROSSvcServerImpl@U?$AddTwoIntsRequest_@V?$allocator@X@std@@@simple_msgs@@U?$AddTwoIntsResponse_@V?$allocator@X@std@@@2@Vsimple_msgs_msg_AddTwoIntsRequest_common@@Vsimple_msgs_msg_AddTwoIntsResponse_common@@@@@std@@EEAAXXZ
	?_Destroy@?$_Ref_count_obj2@VPublisher@ros@@@std@@EEAAXXZ
	?_Destroy@?$_Ref_count_obj2@VServiceClient@ros@@@std@@EEAAXXZ
	?_Destroy@?$_Ref_count_obj2@VServiceServer@ros@@@std@@EEAAXXZ
	?_Destroy@?$_Ref_count_obj2@VSubscriber@ros@@@std@@EEAAXXZ
	?_Destroy@?$_Ref_count_resource@PEAVArrayFactoryImpl@impl@data@matlab@@V<lambda_a4c5f97d4391fb4c09103a727c16defd>@@@std@@EEAAXXZ
	?_Destroy@?$_Ref_count_resource@PEAVArrayImpl@impl@data@matlab@@V<lambda_18bde30140702ba20a566c9dc393b8c0>@@@std@@EEAAXXZ
	?_Destroy@?$_Ref_count_resource@PEAVArrayImpl@impl@data@matlab@@V<lambda_49bc69670bef5877f460780ec06c4b58>@@@std@@EEAAXXZ
	?_Destroy@?$_Ref_count_resource@PEAVNameListImpl@detail@data@matlab@@V<lambda_9f3a4d0362104a3bede0405fafec76e1>@@@std@@EEAAXXZ
	?_Destroy@?$_Ref_count_resource@PEAVReferenceImpl@detail@data@matlab@@V<lambda_2615407b98e1f3a14023b76f0dedc381>@@@std@@EEAAXXZ
	?_Equal@?$basic_string@DU?$char_traits@D@std@@V?$allocator@D@2@@std@@QEBA_NQEBD@Z
	?_Erase_unchecked@?$_Tree@V?$_Tmap_traits@_JU?$AddTwoIntsRequest_@V?$allocator@X@std@@@simple_msgs@@U?$less@_J@std@@V?$allocator@U?$pair@$$CB_JU?$AddTwoIntsRequest_@V?$allocator@X@std@@@simple_msgs@@@std@@@4@$0A@@std@@@std@@AEAAPEAU?$_Tree_node@U?$pair@$$CB_JU?$AddTwoIntsRequest_@V?$allocator@X@std@@@simple_msgs@@@std@@PEAX@2@V?$_Tree_unchecked_const_iterator@V?$_Tree_val@U?$_Tree_simple_types@U?$pair@$$CB_JU?$AddTwoIntsRequest_@V?$allocator@X@std@@@simple_msgs@@@std@@@std@@@std@@U_Iterator_base0@2@@2@0@Z
	?_Erase_unchecked@?$_Tree@V?$_Tmap_traits@_JU?$AddTwoIntsRequest_@V?$allocator@X@std@@@simple_msgs@@U?$less@_J@std@@V?$allocator@U?$pair@$$CB_JU?$AddTwoIntsRequest_@V?$allocator@X@std@@@simple_msgs@@@std@@@4@$0A@@std@@@std@@AEAAPEAU?$_Tree_node@U?$pair@$$CB_JU?$AddTwoIntsRequest_@V?$allocator@X@std@@@simple_msgs@@@std@@PEAX@2@V?$_Tree_unchecked_const_iterator@V?$_Tree_val@U?$_Tree_simple_types@U?$pair@$$CB_JU?$AddTwoIntsRequest_@V?$allocator@X@std@@@simple_msgs@@@std@@@std@@@std@@U_Iterator_base0@2@@2@@Z
	?_Extract@?$_Tree_val@U?$_Tree_simple_types@U?$pair@$$CB_JU?$AddTwoIntsRequest_@V?$allocator@X@std@@@simple_msgs@@@std@@@std@@@std@@QEAAPEAU?$_Tree_node@U?$pair@$$CB_JU?$AddTwoIntsRequest_@V?$allocator@X@std@@@simple_msgs@@@std@@PEAX@2@V?$_Tree_unchecked_const_iterator@V?$_Tree_val@U?$_Tree_simple_types@U?$pair@$$CB_JU?$AddTwoIntsRequest_@V?$allocator@X@std@@@simple_msgs@@@std@@@std@@@std@@U_Iterator_base0@2@@2@@Z
	?_Get_deleter@?$_Ref_count_resource@PEAVArrayFactoryImpl@impl@data@matlab@@V<lambda_a4c5f97d4391fb4c09103a727c16defd>@@@std@@UEBAPEAXAEBVtype_info@@@Z
	?_Get_deleter@?$_Ref_count_resource@PEAVArrayImpl@impl@data@matlab@@V<lambda_18bde30140702ba20a566c9dc393b8c0>@@@std@@UEBAPEAXAEBVtype_info@@@Z
	?_Get_deleter@?$_Ref_count_resource@PEAVArrayImpl@impl@data@matlab@@V<lambda_49bc69670bef5877f460780ec06c4b58>@@@std@@UEBAPEAXAEBVtype_info@@@Z
	?_Get_deleter@?$_Ref_count_resource@PEAVNameListImpl@detail@data@matlab@@V<lambda_9f3a4d0362104a3bede0405fafec76e1>@@@std@@UEBAPEAXAEBVtype_info@@@Z
	?_Get_deleter@?$_Ref_count_resource@PEAVReferenceImpl@detail@data@matlab@@V<lambda_2615407b98e1f3a14023b76f0dedc381>@@@std@@UEBAPEAXAEBVtype_info@@@Z
	?_Get_deleter@_Ref_count_base@std@@UEBAPEAXAEBVtype_info@@@Z
	?_Getal@?$_Tree@V?$_Tmap_traits@V?$basic_string@DU?$char_traits@D@std@@V?$allocator@D@2@@std@@V12@U?$less@V?$basic_string@DU?$char_traits@D@std@@V?$allocator@D@2@@std@@@2@V?$allocator@U?$pair@$$CBV?$basic_string@DU?$char_traits@D@std@@V?$allocator@D@2@@std@@V12@@std@@@2@$0A@@std@@@std@@IEAAAEAV?$allocator@U?$_Tree_node@U?$pair@$$CBV?$basic_string@DU?$char_traits@D@std@@V?$allocator@D@2@@std@@V12@@std@@PEAX@std@@@2@XZ
	?_Insert_node@?$_Tree_val@U?$_Tree_simple_types@U?$pair@$$CBII@std@@@std@@@std@@QEAAPEAU?$_Tree_node@U?$pair@$$CBII@std@@PEAX@2@U?$_Tree_id@PEAU?$_Tree_node@U?$pair@$$CBII@std@@PEAX@std@@@2@QEAU32@@Z
	?_Insert_node@?$_Tree_val@U?$_Tree_simple_types@U?$pair@$$CBIPEAUConnectionInfo@rosbag@@@std@@@std@@@std@@QEAAPEAU?$_Tree_node@U?$pair@$$CBIPEAUConnectionInfo@rosbag@@@std@@PEAX@2@U?$_Tree_id@PEAU?$_Tree_node@U?$pair@$$CBIPEAUConnectionInfo@rosbag@@@std@@PEAX@std@@@2@QEAU32@@Z
	?_Insert_node@?$_Tree_val@U?$_Tree_simple_types@U?$pair@$$CBIV?$multiset@UIndexEntry@rosbag@@U?$less@UIndexEntry@rosbag@@@std@@V?$allocator@UIndexEntry@rosbag@@@4@@std@@@std@@@std@@@std@@QEAAPEAU?$_Tree_node@U?$pair@$$CBIV?$multiset@UIndexEntry@rosbag@@U?$less@UIndexEntry@rosbag@@@std@@V?$allocator@UIndexEntry@rosbag@@@4@@std@@@std@@PEAX@2@U?$_Tree_id@PEAU?$_Tree_node@U?$pair@$$CBIV?$multiset@UIndexEntry@rosbag@@U?$less@UIndexEntry@rosbag@@@std@@V?$allocator@UIndexEntry@rosbag@@@4@@std@@@std@@PEAX@std@@@2@QEAU32@@Z
	?_Insert_node@?$_Tree_val@U?$_Tree_simple_types@U?$pair@$$CBV?$basic_string@DU?$char_traits@D@std@@V?$allocator@D@2@@std@@I@std@@@std@@@std@@QEAAPEAU?$_Tree_node@U?$pair@$$CBV?$basic_string@DU?$char_traits@D@std@@V?$allocator@D@2@@std@@I@std@@PEAX@2@U?$_Tree_id@PEAU?$_Tree_node@U?$pair@$$CBV?$basic_string@DU?$char_traits@D@std@@V?$allocator@D@2@@std@@I@std@@PEAX@std@@@2@QEAU32@@Z
	?_Insert_node@?$_Tree_val@U?$_Tree_simple_types@U?$pair@$$CBV?$basic_string@DU?$char_traits@D@std@@V?$allocator@D@2@@std@@PEAVAbstractMetaObjectBase@impl@ros1_class_loader@@@std@@@std@@@std@@QEAAPEAU?$_Tree_node@U?$pair@$$CBV?$basic_string@DU?$char_traits@D@std@@V?$allocator@D@2@@std@@PEAVAbstractMetaObjectBase@impl@ros1_class_loader@@@std@@PEAX@2@U?$_Tree_id@PEAU?$_Tree_node@U?$pair@$$CBV?$basic_string@DU?$char_traits@D@std@@V?$allocator@D@2@@std@@PEAVAbstractMetaObjectBase@impl@ros1_class_loader@@@std@@PEAX@std@@@2@QEAU32@@Z
	?_Insert_node@?$_Tree_val@U?$_Tree_simple_types@U?$pair@$$CBV?$basic_string@DU?$char_traits@D@std@@V?$allocator@D@2@@std@@V12@@std@@@std@@@std@@QEAAPEAU?$_Tree_node@U?$pair@$$CBV?$basic_string@DU?$char_traits@D@std@@V?$allocator@D@2@@std@@V12@@std@@PEAX@2@U?$_Tree_id@PEAU?$_Tree_node@U?$pair@$$CBV?$basic_string@DU?$char_traits@D@std@@V?$allocator@D@2@@std@@V12@@std@@PEAX@std@@@2@QEAU32@@Z
	?_Insert_node@?$_Tree_val@U?$_Tree_simple_types@U?$pair@$$CBV?$map@V?$basic_string@DU?$char_traits@D@std@@V?$allocator@D@2@@std@@V12@U?$less@V?$basic_string@DU?$char_traits@D@std@@V?$allocator@D@2@@std@@@2@V?$allocator@U?$pair@$$CBV?$basic_string@DU?$char_traits@D@std@@V?$allocator@D@2@@std@@V12@@std@@@2@@std@@I@std@@@std@@@std@@QEAAPEAU?$_Tree_node@U?$pair@$$CBV?$map@V?$basic_string@DU?$char_traits@D@std@@V?$allocator@D@2@@std@@V12@U?$less@V?$basic_string@DU?$char_traits@D@std@@V?$allocator@D@2@@std@@@2@V?$allocator@U?$pair@$$CBV?$basic_string@DU?$char_traits@D@std@@V?$allocator@D@2@@std@@V12@@std@@@2@@std@@I@std@@PEAX@2@U?$_Tree_id@PEAU?$_Tree_node@U?$pair@$$CBV?$map@V?$basic_string@DU?$char_traits@D@std@@V?$allocator@D@2@@std@@V12@U?$less@V?$basic_string@DU?$char_traits@D@std@@V?$allocator@D@2@@std@@@2@V?$allocator@U?$pair@$$CBV?$basic_string@DU?$char_traits@D@std@@V?$allocator@D@2@@std@@V12@@std@@@2@@std@@I@std@@PEAX@std@@@2@QEAU32@@Z
	?_Insert_node@?$_Tree_val@U?$_Tree_simple_types@U?$pair@$$CB_JU?$AddTwoIntsRequest_@V?$allocator@X@std@@@simple_msgs@@@std@@@std@@@std@@QEAAPEAU?$_Tree_node@U?$pair@$$CB_JU?$AddTwoIntsRequest_@V?$allocator@X@std@@@simple_msgs@@@std@@PEAX@2@U?$_Tree_id@PEAU?$_Tree_node@U?$pair@$$CB_JU?$AddTwoIntsRequest_@V?$allocator@X@std@@@simple_msgs@@@std@@PEAX@std@@@2@QEAU32@@Z
	?_Insert_node@?$_Tree_val@U?$_Tree_simple_types@UIndexEntry@rosbag@@@std@@@std@@QEAAPEAU?$_Tree_node@UIndexEntry@rosbag@@PEAX@2@U?$_Tree_id@PEAU?$_Tree_node@UIndexEntry@rosbag@@PEAX@std@@@2@QEAU32@@Z
	?_Lrotate@?$_Tree_val@U?$_Tree_simple_types@U?$pair@$$CBII@std@@@std@@@std@@QEAAXPEAU?$_Tree_node@U?$pair@$$CBII@std@@PEAX@2@@Z
	?_Lrotate@?$_Tree_val@U?$_Tree_simple_types@U?$pair@$$CBIPEAUConnectionInfo@rosbag@@@std@@@std@@@std@@QEAAXPEAU?$_Tree_node@U?$pair@$$CBIPEAUConnectionInfo@rosbag@@@std@@PEAX@2@@Z
	?_Lrotate@?$_Tree_val@U?$_Tree_simple_types@U?$pair@$$CBIV?$multiset@UIndexEntry@rosbag@@U?$less@UIndexEntry@rosbag@@@std@@V?$allocator@UIndexEntry@rosbag@@@4@@std@@@std@@@std@@@std@@QEAAXPEAU?$_Tree_node@U?$pair@$$CBIV?$multiset@UIndexEntry@rosbag@@U?$less@UIndexEntry@rosbag@@@std@@V?$allocator@UIndexEntry@rosbag@@@4@@std@@@std@@PEAX@2@@Z
	?_Lrotate@?$_Tree_val@U?$_Tree_simple_types@U?$pair@$$CBV?$basic_string@DU?$char_traits@D@std@@V?$allocator@D@2@@std@@I@std@@@std@@@std@@QEAAXPEAU?$_Tree_node@U?$pair@$$CBV?$basic_string@DU?$char_traits@D@std@@V?$allocator@D@2@@std@@I@std@@PEAX@2@@Z
	?_Lrotate@?$_Tree_val@U?$_Tree_simple_types@U?$pair@$$CBV?$basic_string@DU?$char_traits@D@std@@V?$allocator@D@2@@std@@PEAVAbstractMetaObjectBase@impl@ros1_class_loader@@@std@@@std@@@std@@QEAAXPEAU?$_Tree_node@U?$pair@$$CBV?$basic_string@DU?$char_traits@D@std@@V?$allocator@D@2@@std@@PEAVAbstractMetaObjectBase@impl@ros1_class_loader@@@std@@PEAX@2@@Z
	?_Lrotate@?$_Tree_val@U?$_Tree_simple_types@U?$pair@$$CBV?$basic_string@DU?$char_traits@D@std@@V?$allocator@D@2@@std@@V12@@std@@@std@@@std@@QEAAXPEAU?$_Tree_node@U?$pair@$$CBV?$basic_string@DU?$char_traits@D@std@@V?$allocator@D@2@@std@@V12@@std@@PEAX@2@@Z
	?_Lrotate@?$_Tree_val@U?$_Tree_simple_types@U?$pair@$$CBV?$map@V?$basic_string@DU?$char_traits@D@std@@V?$allocator@D@2@@std@@V12@U?$less@V?$basic_string@DU?$char_traits@D@std@@V?$allocator@D@2@@std@@@2@V?$allocator@U?$pair@$$CBV?$basic_string@DU?$char_traits@D@std@@V?$allocator@D@2@@std@@V12@@std@@@2@@std@@I@std@@@std@@@std@@QEAAXPEAU?$_Tree_node@U?$pair@$$CBV?$map@V?$basic_string@DU?$char_traits@D@std@@V?$allocator@D@2@@std@@V12@U?$less@V?$basic_string@DU?$char_traits@D@std@@V?$allocator@D@2@@std@@@2@V?$allocator@U?$pair@$$CBV?$basic_string@DU?$char_traits@D@std@@V?$allocator@D@2@@std@@V12@@std@@@2@@std@@I@std@@PEAX@2@@Z
	?_Lrotate@?$_Tree_val@U?$_Tree_simple_types@U?$pair@$$CB_JU?$AddTwoIntsRequest_@V?$allocator@X@std@@@simple_msgs@@@std@@@std@@@std@@QEAAXPEAU?$_Tree_node@U?$pair@$$CB_JU?$AddTwoIntsRequest_@V?$allocator@X@std@@@simple_msgs@@@std@@PEAX@2@@Z
	?_Lrotate@?$_Tree_val@U?$_Tree_simple_types@UIndexEntry@rosbag@@@std@@@std@@QEAAXPEAU?$_Tree_node@UIndexEntry@rosbag@@PEAX@2@@Z
	?_Maklocwcs@std@@YAPEA_WPEB_W@Z
	?_Myptr@?$_String_val@U?$_Simple_types@D@std@@@std@@QEAAPEADXZ
	?_Myptr@?$_String_val@U?$_Simple_types@D@std@@@std@@QEBAPEBDXZ
	?_Rrotate@?$_Tree_val@U?$_Tree_simple_types@U?$pair@$$CBII@std@@@std@@@std@@QEAAXPEAU?$_Tree_node@U?$pair@$$CBII@std@@PEAX@2@@Z
	?_Rrotate@?$_Tree_val@U?$_Tree_simple_types@U?$pair@$$CBIPEAUConnectionInfo@rosbag@@@std@@@std@@@std@@QEAAXPEAU?$_Tree_node@U?$pair@$$CBIPEAUConnectionInfo@rosbag@@@std@@PEAX@2@@Z
	?_Rrotate@?$_Tree_val@U?$_Tree_simple_types@U?$pair@$$CBIV?$multiset@UIndexEntry@rosbag@@U?$less@UIndexEntry@rosbag@@@std@@V?$allocator@UIndexEntry@rosbag@@@4@@std@@@std@@@std@@@std@@QEAAXPEAU?$_Tree_node@U?$pair@$$CBIV?$multiset@UIndexEntry@rosbag@@U?$less@UIndexEntry@rosbag@@@std@@V?$allocator@UIndexEntry@rosbag@@@4@@std@@@std@@PEAX@2@@Z
	?_Rrotate@?$_Tree_val@U?$_Tree_simple_types@U?$pair@$$CBV?$basic_string@DU?$char_traits@D@std@@V?$allocator@D@2@@std@@I@std@@@std@@@std@@QEAAXPEAU?$_Tree_node@U?$pair@$$CBV?$basic_string@DU?$char_traits@D@std@@V?$allocator@D@2@@std@@I@std@@PEAX@2@@Z
	?_Rrotate@?$_Tree_val@U?$_Tree_simple_types@U?$pair@$$CBV?$basic_string@DU?$char_traits@D@std@@V?$allocator@D@2@@std@@PEAVAbstractMetaObjectBase@impl@ros1_class_loader@@@std@@@std@@@std@@QEAAXPEAU?$_Tree_node@U?$pair@$$CBV?$basic_string@DU?$char_traits@D@std@@V?$allocator@D@2@@std@@PEAVAbstractMetaObjectBase@impl@ros1_class_loader@@@std@@PEAX@2@@Z
	?_Rrotate@?$_Tree_val@U?$_Tree_simple_types@U?$pair@$$CBV?$basic_string@DU?$char_traits@D@std@@V?$allocator@D@2@@std@@V12@@std@@@std@@@std@@QEAAXPEAU?$_Tree_node@U?$pair@$$CBV?$basic_string@DU?$char_traits@D@std@@V?$allocator@D@2@@std@@V12@@std@@PEAX@2@@Z
	?_Rrotate@?$_Tree_val@U?$_Tree_simple_types@U?$pair@$$CBV?$map@V?$basic_string@DU?$char_traits@D@std@@V?$allocator@D@2@@std@@V12@U?$less@V?$basic_string@DU?$char_traits@D@std@@V?$allocator@D@2@@std@@@2@V?$allocator@U?$pair@$$CBV?$basic_string@DU?$char_traits@D@std@@V?$allocator@D@2@@std@@V12@@std@@@2@@std@@I@std@@@std@@@std@@QEAAXPEAU?$_Tree_node@U?$pair@$$CBV?$map@V?$basic_string@DU?$char_traits@D@std@@V?$allocator@D@2@@std@@V12@U?$less@V?$basic_string@DU?$char_traits@D@std@@V?$allocator@D@2@@std@@@2@V?$allocator@U?$pair@$$CBV?$basic_string@DU?$char_traits@D@std@@V?$allocator@D@2@@std@@V12@@std@@@2@@std@@I@std@@PEAX@2@@Z
	?_Rrotate@?$_Tree_val@U?$_Tree_simple_types@U?$pair@$$CB_JU?$AddTwoIntsRequest_@V?$allocator@X@std@@@simple_msgs@@@std@@@std@@@std@@QEAAXPEAU?$_Tree_node@U?$pair@$$CB_JU?$AddTwoIntsRequest_@V?$allocator@X@std@@@simple_msgs@@@std@@PEAX@2@@Z
	?_Rrotate@?$_Tree_val@U?$_Tree_simple_types@UIndexEntry@rosbag@@@std@@@std@@QEAAXPEAU?$_Tree_node@UIndexEntry@rosbag@@PEAX@2@@Z
	?_Swap@?$_Ptr_base@VArrayFactoryImpl@impl@data@matlab@@@std@@IEAAXAEAV12@@Z
	?_Swap@?$_Ptr_base@VArrayImpl@impl@data@matlab@@@std@@IEAAXAEAV12@@Z
	?_Swap@?$_Ptr_base@VMATLABPublisherInterface@@@std@@IEAAXAEAV12@@Z
	?_Swap@?$_Ptr_base@VMATLABRosbagWriterInterface@@@std@@IEAAXAEAV12@@Z
	?_Swap@?$_Ptr_base@VMATLABSubscriberInterface@@@std@@IEAAXAEAV12@@Z
	?_Swap@?$_Ptr_base@VPublisher@ros@@@std@@IEAAXAEAV12@@Z
	?_Swap@?$_Ptr_base@VServiceClient@ros@@@std@@IEAAXAEAV12@@Z
	?_Swap@?$_Ptr_base@VServiceServer@ros@@@std@@IEAAXAEAV12@@Z
	?_Swap@?$_Ptr_base@VSubscriber@ros@@@std@@IEAAXAEAV12@@Z
	?_Take_contents@?$basic_string@DU?$char_traits@D@std@@V?$allocator@D@2@@std@@AEAAXAEAV12@@Z
	?_Throw_bad_array_new_length@std@@YAXXZ
	?_Throw_tree_length_error@std@@YAXXZ
	?_Tidy@?$vector@U?$pair@W4FunctionType@detail@data@matlab@@V?$basic_string@DU?$char_traits@D@std@@V?$allocator@D@2@@std@@@std@@V?$allocator@U?$pair@W4FunctionType@detail@data@matlab@@V?$basic_string@DU?$char_traits@D@std@@V?$allocator@D@2@@std@@@std@@@2@@std@@AEAAXXZ
	?_Tidy@?$vector@V?$basic_string@DU?$char_traits@D@std@@V?$allocator@D@2@@std@@V?$allocator@V?$basic_string@DU?$char_traits@D@std@@V?$allocator@D@2@@std@@@2@@std@@AEAAXXZ
	?_Tidy@?$vector@VArray@data@matlab@@V?$allocator@VArray@data@matlab@@@std@@@std@@AEAAXXZ
	?_Tidy@?$vector@_KV?$allocator@_K@std@@@std@@AEAAXXZ
	?_Tidy_deallocate@?$basic_string@DU?$char_traits@D@std@@V?$allocator@D@2@@std@@AEAAXXZ
	?_Tidy_init@?$basic_string@DU?$char_traits@D@std@@V?$allocator@D@2@@std@@AEAAXXZ
	?_Xlen_string@std@@YAXXZ
	?_Xlength@?$vector@U?$pair@W4FunctionType@detail@data@matlab@@V?$basic_string@DU?$char_traits@D@std@@V?$allocator@D@2@@std@@@std@@V?$allocator@U?$pair@W4FunctionType@detail@data@matlab@@V?$basic_string@DU?$char_traits@D@std@@V?$allocator@D@2@@std@@@std@@@2@@std@@CAXXZ
	?_Xlength@?$vector@V?$basic_string@DU?$char_traits@D@std@@V?$allocator@D@2@@std@@V?$allocator@V?$basic_string@DU?$char_traits@D@std@@V?$allocator@D@2@@std@@@2@@std@@CAXXZ
	?_Xlength@?$vector@VArray@data@matlab@@V?$allocator@VArray@data@matlab@@@std@@@std@@CAXXZ
	?_Xlength@?$vector@_KV?$allocator@_K@std@@@std@@CAXXZ
	?_internal_get_untyped_deleter@?$shared_ptr@U?$AddTwoIntsRequest_@V?$allocator@X@std@@@simple_msgs@@@mwboost@@QEBAPEAXXZ
	?_internal_get_untyped_deleter@?$shared_ptr@U?$AddTwoIntsResponse_@V?$allocator@X@std@@@simple_msgs@@@mwboost@@QEBAPEAXXZ
	?_internal_get_untyped_deleter@?$shared_ptr@U?$Num_@V?$allocator@X@std@@@simple_msgs@@@mwboost@@QEBAPEAXXZ
	?_internal_get_untyped_deleter@?$shared_ptr@V?$ServiceCallbackHelperT@U?$ServiceSpec@U?$AddTwoIntsRequest_@V?$allocator@X@std@@@simple_msgs@@U?$AddTwoIntsResponse_@V?$allocator@X@std@@@2@@ros@@@ros@@@mwboost@@QEBAPEAXXZ
	?_internal_get_untyped_deleter@?$shared_ptr@V?$SubscriptionCallbackHelperT@AEBV?$shared_ptr@$$CBU?$AddTwoIntsRequest_@V?$allocator@X@std@@@simple_msgs@@@mwboost@@X@ros@@@mwboost@@QEBAPEAXXZ
	?_internal_get_untyped_deleter@?$shared_ptr@V?$SubscriptionCallbackHelperT@AEBV?$shared_ptr@$$CBU?$AddTwoIntsResponse_@V?$allocator@X@std@@@simple_msgs@@@mwboost@@X@ros@@@mwboost@@QEBAPEAXXZ
	?_internal_get_untyped_deleter@?$shared_ptr@V?$SubscriptionCallbackHelperT@AEBV?$shared_ptr@$$CBU?$Num_@V?$allocator@X@std@@@simple_msgs@@@mwboost@@X@ros@@@mwboost@@QEBAPEAXXZ
	?_internal_get_untyped_deleter@?$shared_ptr@V?$map@V?$basic_string@DU?$char_traits@D@std@@V?$allocator@D@2@@std@@V12@U?$less@V?$basic_string@DU?$char_traits@D@std@@V?$allocator@D@2@@std@@@2@V?$allocator@U?$pair@$$CBV?$basic_string@DU?$char_traits@D@std@@V?$allocator@D@2@@std@@V12@@std@@@2@@std@@@mwboost@@QEBAPEAXXZ
	?addRequestToPool@?$ROSSvcClientImpl@UAddTwoInts@simple_msgs@@U?$AddTwoIntsRequest_@V?$allocator@X@std@@@2@U?$AddTwoIntsResponse_@V?$allocator@X@std@@@2@Vsimple_msgs_msg_AddTwoIntsRequest_common@@Vsimple_msgs_msg_AddTwoIntsResponse_common@@@@UEAA_NVStructArray@data@matlab@@@Z
	?addRequestToPool@MATLABSvcClientInterface@@UEAA_NVStructArray@data@matlab@@@Z
	?adopt@?$refcount_ptr@Uerror_info_container@exception_detail@mwboost@@@exception_detail@mwboost@@QEAAXPEAUerror_info_container@23@@Z
	?allocate@?$allocator@U?$_Tree_node@U?$pair@$$CBII@std@@PEAX@std@@@std@@QEAAPEAU?$_Tree_node@U?$pair@$$CBII@std@@PEAX@2@_K@Z
	?allocate@?$allocator@U?$_Tree_node@U?$pair@$$CBIPEAUConnectionInfo@rosbag@@@std@@PEAX@std@@@std@@QEAAPEAU?$_Tree_node@U?$pair@$$CBIPEAUConnectionInfo@rosbag@@@std@@PEAX@2@_K@Z
	?allocate@?$allocator@U?$_Tree_node@U?$pair@$$CBIV?$multiset@UIndexEntry@rosbag@@U?$less@UIndexEntry@rosbag@@@std@@V?$allocator@UIndexEntry@rosbag@@@4@@std@@@std@@PEAX@std@@@std@@QEAAPEAU?$_Tree_node@U?$pair@$$CBIV?$multiset@UIndexEntry@rosbag@@U?$less@UIndexEntry@rosbag@@@std@@V?$allocator@UIndexEntry@rosbag@@@4@@std@@@std@@PEAX@2@_K@Z
	?allocate@?$allocator@U?$_Tree_node@U?$pair@$$CBV?$basic_string@DU?$char_traits@D@std@@V?$allocator@D@2@@std@@I@std@@PEAX@std@@@std@@QEAAPEAU?$_Tree_node@U?$pair@$$CBV?$basic_string@DU?$char_traits@D@std@@V?$allocator@D@2@@std@@I@std@@PEAX@2@_K@Z
	?allocate@?$allocator@U?$_Tree_node@U?$pair@$$CBV?$basic_string@DU?$char_traits@D@std@@V?$allocator@D@2@@std@@PEAVAbstractMetaObjectBase@impl@ros1_class_loader@@@std@@PEAX@std@@@std@@QEAAPEAU?$_Tree_node@U?$pair@$$CBV?$basic_string@DU?$char_traits@D@std@@V?$allocator@D@2@@std@@PEAVAbstractMetaObjectBase@impl@ros1_class_loader@@@std@@PEAX@2@_K@Z
	?allocate@?$allocator@U?$_Tree_node@U?$pair@$$CBV?$basic_string@DU?$char_traits@D@std@@V?$allocator@D@2@@std@@V12@@std@@PEAX@std@@@std@@QEAAPEAU?$_Tree_node@U?$pair@$$CBV?$basic_string@DU?$char_traits@D@std@@V?$allocator@D@2@@std@@V12@@std@@PEAX@2@_K@Z
	?allocate@?$allocator@U?$_Tree_node@U?$pair@$$CBV?$map@V?$basic_string@DU?$char_traits@D@std@@V?$allocator@D@2@@std@@V12@U?$less@V?$basic_string@DU?$char_traits@D@std@@V?$allocator@D@2@@std@@@2@V?$allocator@U?$pair@$$CBV?$basic_string@DU?$char_traits@D@std@@V?$allocator@D@2@@std@@V12@@std@@@2@@std@@I@std@@PEAX@std@@@std@@QEAAPEAU?$_Tree_node@U?$pair@$$CBV?$map@V?$basic_string@DU?$char_traits@D@std@@V?$allocator@D@2@@std@@V12@U?$less@V?$basic_string@DU?$char_traits@D@std@@V?$allocator@D@2@@std@@@2@V?$allocator@U?$pair@$$CBV?$basic_string@DU?$char_traits@D@std@@V?$allocator@D@2@@std@@V12@@std@@@2@@std@@I@std@@PEAX@2@_K@Z
	?allocate@?$allocator@U?$_Tree_node@U?$pair@$$CB_JU?$AddTwoIntsRequest_@V?$allocator@X@std@@@simple_msgs@@@std@@PEAX@std@@@std@@QEAAPEAU?$_Tree_node@U?$pair@$$CB_JU?$AddTwoIntsRequest_@V?$allocator@X@std@@@simple_msgs@@@std@@PEAX@2@_K@Z
	?allocate@?$allocator@U?$_Tree_node@UIndexEntry@rosbag@@PEAX@std@@@std@@QEAAPEAU?$_Tree_node@UIndexEntry@rosbag@@PEAX@2@_K@Z
	?allocate@?$allocator@U?$pair@W4FunctionType@detail@data@matlab@@V?$basic_string@DU?$char_traits@D@std@@V?$allocator@D@2@@std@@@std@@@std@@QEAAPEAU?$pair@W4FunctionType@detail@data@matlab@@V?$basic_string@DU?$char_traits@D@std@@V?$allocator@D@2@@std@@@2@_K@Z
	?allocate@?$allocator@V?$basic_string@DU?$char_traits@D@std@@V?$allocator@D@2@@std@@@std@@QEAAPEAV?$basic_string@DU?$char_traits@D@std@@V?$allocator@D@2@@2@_K@Z
	?allocate@?$allocator@VArray@data@matlab@@@std@@QEAAPEAVArray@data@matlab@@_K@Z
	?allocate@?$allocator@_K@std@@QEAAPEA_K_K@Z
	?append@?$basic_string@DU?$char_traits@D@std@@V?$allocator@D@2@@std@@QEAAAEAV12@AEBV12@@Z
	?append@?$basic_string@DU?$char_traits@D@std@@V?$allocator@D@2@@std@@QEAAAEAV12@QEBD_K@Z
	?appendAndSendToMATLAB@MATLABSubscriberInterface@@UEAAXPEAXP6A_N0AEBV?$vector@VArray@data@matlab@@V?$allocator@VArray@data@matlab@@@std@@@std@@@ZAEAVArray@data@matlab@@@Z
	?appendAndSendToMATLAB@MATLABSvcClientInterface@@UEAAXPEAXP6A_N0AEBV?$vector@VArray@data@matlab@@V?$allocator@VArray@data@matlab@@@std@@@std@@@ZVArray@data@matlab@@_J4@Z
	?appendAndSendToMATLAB@MATLABSvcServerInterface@@UEAAXPEAXP6A_N0AEBV?$vector@VArray@data@matlab@@V?$allocator@VArray@data@matlab@@@std@@@std@@@ZVArray@data@matlab@@_J@Z
	?assign@?$basic_string@DU?$char_traits@D@std@@V?$allocator@D@2@@std@@QEAAAEAV12@QEBD_K@Z
	?assign_to_own@?$function0@V?$shared_ptr@U?$AddTwoIntsRequest_@V?$allocator@X@std@@@simple_msgs@@@mwboost@@@mwboost@@AEAAXAEBV12@@Z
	?assign_to_own@?$function0@V?$shared_ptr@U?$AddTwoIntsResponse_@V?$allocator@X@std@@@simple_msgs@@@mwboost@@@mwboost@@AEAAXAEBV12@@Z
	?assign_to_own@?$function0@V?$shared_ptr@U?$Num_@V?$allocator@X@std@@@simple_msgs@@@mwboost@@@mwboost@@AEAAXAEBV12@@Z
	?assign_to_own@?$function1@XAEBV?$shared_ptr@$$CBU?$AddTwoIntsRequest_@V?$allocator@X@std@@@simple_msgs@@@mwboost@@@mwboost@@AEAAXAEBV12@@Z
	?assign_to_own@?$function1@XAEBV?$shared_ptr@$$CBU?$AddTwoIntsResponse_@V?$allocator@X@std@@@simple_msgs@@@mwboost@@@mwboost@@AEAAXAEBV12@@Z
	?assign_to_own@?$function1@XAEBV?$shared_ptr@$$CBU?$Num_@V?$allocator@X@std@@@simple_msgs@@@mwboost@@@mwboost@@AEAAXAEBV12@@Z
	?assign_to_own@?$function1@XAEBVSingleSubscriberPublisher@ros@@@mwboost@@AEAAXAEBV12@@Z
	?assign_to_own@?$function1@XV?$shared_ptr@$$CBU?$AddTwoIntsRequest_@V?$allocator@X@std@@@simple_msgs@@@mwboost@@@mwboost@@AEAAXAEBV12@@Z
	?assign_to_own@?$function1@XV?$shared_ptr@$$CBU?$AddTwoIntsResponse_@V?$allocator@X@std@@@simple_msgs@@@mwboost@@@mwboost@@AEAAXAEBV12@@Z
	?assign_to_own@?$function1@XV?$shared_ptr@$$CBU?$Num_@V?$allocator@X@std@@@simple_msgs@@@mwboost@@@mwboost@@AEAAXAEBV12@@Z
	?assign_to_own@?$function2@_NAEAU?$AddTwoIntsRequest_@V?$allocator@X@std@@@simple_msgs@@AEAU?$AddTwoIntsResponse_@V?$allocator@X@std@@@2@@mwboost@@AEAAXAEBV12@@Z
	?atomic_decrement@detail@mwboost@@YAHPEAU?$atomic@H@std@@@Z
	?c_str@?$basic_string@DU?$char_traits@D@std@@V?$allocator@D@2@@std@@QEBAPEBDXZ
	?call@?$ServiceCallbackHelperT@U?$ServiceSpec@U?$AddTwoIntsRequest_@V?$allocator@X@std@@@simple_msgs@@U?$AddTwoIntsResponse_@V?$allocator@X@std@@@2@@ros@@@ros@@UEAA_NAEAUServiceCallbackHelperCallParams@2@@Z
	?call@?$SubscriptionCallbackHelperT@AEBV?$shared_ptr@$$CBU?$AddTwoIntsRequest_@V?$allocator@X@std@@@simple_msgs@@@mwboost@@X@ros@@UEAAXAEAUSubscriptionCallbackHelperCallParams@2@@Z
	?call@?$SubscriptionCallbackHelperT@AEBV?$shared_ptr@$$CBU?$AddTwoIntsResponse_@V?$allocator@X@std@@@simple_msgs@@@mwboost@@X@ros@@UEAAXAEAUSubscriptionCallbackHelperCallParams@2@@Z
	?call@?$SubscriptionCallbackHelperT@AEBV?$shared_ptr@$$CBU?$Num_@V?$allocator@X@std@@@simple_msgs@@@mwboost@@X@ros@@UEAAXAEAUSubscriptionCallbackHelperCallParams@2@@Z
	?callback@?$ROSSubscriberImpl@U?$AddTwoIntsRequest_@V?$allocator@X@std@@@simple_msgs@@V?$shared_ptr@$$CBU?$AddTwoIntsRequest_@V?$allocator@X@std@@@simple_msgs@@@mwboost@@Vsimple_msgs_msg_AddTwoIntsRequest_common@@@@QEAAXAEBV?$shared_ptr@$$CBU?$AddTwoIntsRequest_@V?$allocator@X@std@@@simple_msgs@@@mwboost@@@Z
	?callback@?$ROSSubscriberImpl@U?$AddTwoIntsResponse_@V?$allocator@X@std@@@simple_msgs@@V?$shared_ptr@$$CBU?$AddTwoIntsResponse_@V?$allocator@X@std@@@simple_msgs@@@mwboost@@Vsimple_msgs_msg_AddTwoIntsResponse_common@@@@QEAAXAEBV?$shared_ptr@$$CBU?$AddTwoIntsResponse_@V?$allocator@X@std@@@simple_msgs@@@mwboost@@@Z
	?callback@?$ROSSubscriberImpl@U?$Num_@V?$allocator@X@std@@@simple_msgs@@V?$shared_ptr@$$CBU?$Num_@V?$allocator@X@std@@@simple_msgs@@@mwboost@@Vsimple_msgs_msg_Num_common@@@@QEAAXAEBV?$shared_ptr@$$CBU?$Num_@V?$allocator@X@std@@@simple_msgs@@@mwboost@@@Z
	?callback@?$ROSSvcServerImpl@U?$AddTwoIntsRequest_@V?$allocator@X@std@@@simple_msgs@@U?$AddTwoIntsResponse_@V?$allocator@X@std@@@2@Vsimple_msgs_msg_AddTwoIntsRequest_common@@Vsimple_msgs_msg_AddTwoIntsResponse_common@@@@AEAA_NAEAU?$AddTwoIntsRequest_@V?$allocator@X@std@@@simple_msgs@@AEAU?$AddTwoIntsResponse_@V?$allocator@X@std@@@3@@Z
	?clear@?$_Tree@V?$_Tmap_traits@V?$basic_string@DU?$char_traits@D@std@@V?$allocator@D@2@@std@@V12@U?$less@V?$basic_string@DU?$char_traits@D@std@@V?$allocator@D@2@@std@@@2@V?$allocator@U?$pair@$$CBV?$basic_string@DU?$char_traits@D@std@@V?$allocator@D@2@@std@@V12@@std@@@2@$0A@@std@@@std@@QEAAXXZ
	?clear@?$_Tree@V?$_Tmap_traits@_JU?$AddTwoIntsRequest_@V?$allocator@X@std@@@simple_msgs@@U?$less@_J@std@@V?$allocator@U?$pair@$$CB_JU?$AddTwoIntsRequest_@V?$allocator@X@std@@@simple_msgs@@@std@@@4@$0A@@std@@@std@@QEAAXXZ
	?clear@?$function0@V?$shared_ptr@U?$AddTwoIntsRequest_@V?$allocator@X@std@@@simple_msgs@@@mwboost@@@mwboost@@QEAAXXZ
	?clear@?$function0@V?$shared_ptr@U?$AddTwoIntsResponse_@V?$allocator@X@std@@@simple_msgs@@@mwboost@@@mwboost@@QEAAXXZ
	?clear@?$function0@V?$shared_ptr@U?$Num_@V?$allocator@X@std@@@simple_msgs@@@mwboost@@@mwboost@@QEAAXXZ
	?clear@?$function0@VSerializedMessage@ros@@@mwboost@@QEAAXXZ
	?clear@?$function1@XAEBV?$shared_ptr@$$CBU?$AddTwoIntsRequest_@V?$allocator@X@std@@@simple_msgs@@@mwboost@@@mwboost@@QEAAXXZ
	?clear@?$function1@XAEBV?$shared_ptr@$$CBU?$AddTwoIntsResponse_@V?$allocator@X@std@@@simple_msgs@@@mwboost@@@mwboost@@QEAAXXZ
	?clear@?$function1@XAEBV?$shared_ptr@$$CBU?$Num_@V?$allocator@X@std@@@simple_msgs@@@mwboost@@@mwboost@@QEAAXXZ
	?clear@?$function1@XAEBVSingleSubscriberPublisher@ros@@@mwboost@@QEAAXXZ
	?clear@?$function1@XV?$shared_ptr@$$CBU?$AddTwoIntsRequest_@V?$allocator@X@std@@@simple_msgs@@@mwboost@@@mwboost@@QEAAXXZ
	?clear@?$function1@XV?$shared_ptr@$$CBU?$AddTwoIntsResponse_@V?$allocator@X@std@@@simple_msgs@@@mwboost@@@mwboost@@QEAAXXZ
	?clear@?$function1@XV?$shared_ptr@$$CBU?$Num_@V?$allocator@X@std@@@simple_msgs@@@mwboost@@@mwboost@@QEAAXXZ
	?clear@?$function2@_NAEAU?$AddTwoIntsRequest_@V?$allocator@X@std@@@simple_msgs@@AEAU?$AddTwoIntsResponse_@V?$allocator@X@std@@@2@@mwboost@@QEAAXXZ
	?clear_waiting_and_try_lock@basic_timed_mutex@detail@mwboost@@QEAAXAEAJ@Z
	?clientRequestTimeout@?$ROSSvcClientImpl@UAddTwoInts@simple_msgs@@U?$AddTwoIntsRequest_@V?$allocator@X@std@@@2@U?$AddTwoIntsResponse_@V?$allocator@X@std@@@2@Vsimple_msgs_msg_AddTwoIntsRequest_common@@Vsimple_msgs_msg_AddTwoIntsResponse_common@@@@UEAA_N_J@Z
	?clientRequestTimeout@MATLABSvcClientInterface@@UEAA_N_J@Z
	?clone@?$clone_impl@Ubad_alloc_@exception_detail@mwboost@@@exception_detail@mwboost@@$0PPPPPPPM@A@EBAPEBVclone_base@23@XZ
	?clone@?$clone_impl@Ubad_alloc_@exception_detail@mwboost@@@exception_detail@mwboost@@EEBAPEBVclone_base@23@XZ
	?clone@?$clone_impl@Ubad_exception_@exception_detail@mwboost@@@exception_detail@mwboost@@$0PPPPPPPM@A@EBAPEBVclone_base@23@XZ
	?clone@?$clone_impl@Ubad_exception_@exception_detail@mwboost@@@exception_detail@mwboost@@EEBAPEBVclone_base@23@XZ
	?clone@?$wrapexcept@Vbad_function_call@mwboost@@@mwboost@@UEBAPEBVclone_base@exception_detail@2@XZ
	?clone@?$wrapexcept@Vthread_resource_error@mwboost@@@mwboost@@UEBAPEBVclone_base@exception_detail@2@XZ
	?compare@?$basic_string@DU?$char_traits@D@std@@V?$allocator@D@2@@std@@QEBAHAEBV12@@Z
	?copy_boost_exception@exception_detail@mwboost@@YAXPEAVexception@2@PEBV32@@Z
	?copy_from_struct@simple_msgs_msg_AddTwoIntsRequest_common@@UEAAXPEAU?$AddTwoIntsRequest_@V?$allocator@X@std@@@simple_msgs@@AEBVStruct@data@matlab@@PEAVMultiLibraryClassLoader@ros1_class_loader@@@Z
	?copy_from_struct@simple_msgs_msg_AddTwoIntsResponse_common@@UEAAXPEAU?$AddTwoIntsResponse_@V?$allocator@X@std@@@simple_msgs@@AEBVStruct@data@matlab@@PEAVMultiLibraryClassLoader@ros1_class_loader@@@Z
	?copy_from_struct@simple_msgs_msg_Num_common@@UEAAXPEAU?$Num_@V?$allocator@X@std@@@simple_msgs@@AEBVStruct@data@matlab@@PEAVMultiLibraryClassLoader@ros1_class_loader@@@Z
	?create@?$MetaObject@Vsimple_msgs_AddTwoInts_service@@VROSMsgElementInterfaceFactory@@@impl@ros1_class_loader@@UEBAPEAVROSMsgElementInterfaceFactory@@XZ
	?create@?$MetaObject@Vsimple_msgs_Num_message@@VROSMsgElementInterfaceFactory@@@impl@ros1_class_loader@@UEBAPEAVROSMsgElementInterfaceFactory@@XZ
	?create@?$MetaObject@Vsimple_msgs_msg_AddTwoIntsRequest_common@@V?$MATLABROSMsgInterface@U?$AddTwoIntsRequest_@V?$allocator@X@std@@@simple_msgs@@@@@impl@ros1_class_loader@@UEBAPEAV?$MATLABROSMsgInterface@U?$AddTwoIntsRequest_@V?$allocator@X@std@@@simple_msgs@@@@XZ
	?create@?$MetaObject@Vsimple_msgs_msg_AddTwoIntsResponse_common@@V?$MATLABROSMsgInterface@U?$AddTwoIntsResponse_@V?$allocator@X@std@@@simple_msgs@@@@@impl@ros1_class_loader@@UEBAPEAV?$MATLABROSMsgInterface@U?$AddTwoIntsResponse_@V?$allocator@X@std@@@simple_msgs@@@@XZ
	?create@?$MetaObject@Vsimple_msgs_msg_Num_common@@V?$MATLABROSMsgInterface@U?$Num_@V?$allocator@X@std@@@simple_msgs@@@@@impl@ros1_class_loader@@UEBAPEAV?$MATLABROSMsgInterface@U?$Num_@V?$allocator@X@std@@@simple_msgs@@@@XZ
	?createCharArray@ArrayFactory@data@matlab@@QEAA?AVCharArray@23@AEBV?$basic_string@DU?$char_traits@D@std@@V?$allocator@D@2@@std@@@Z
	?createPublisher@?$ROSPublisherImpl@U?$AddTwoIntsRequest_@V?$allocator@X@std@@@simple_msgs@@Vsimple_msgs_msg_AddTwoIntsRequest_common@@@@UEAA_JAEBV?$basic_string@DU?$char_traits@D@std@@V?$allocator@D@2@@std@@_NV?$shared_ptr@VNodeHandle@ros@@@3@@Z
	?createPublisher@?$ROSPublisherImpl@U?$AddTwoIntsResponse_@V?$allocator@X@std@@@simple_msgs@@Vsimple_msgs_msg_AddTwoIntsResponse_common@@@@UEAA_JAEBV?$basic_string@DU?$char_traits@D@std@@V?$allocator@D@2@@std@@_NV?$shared_ptr@VNodeHandle@ros@@@3@@Z
	?createPublisher@?$ROSPublisherImpl@U?$Num_@V?$allocator@X@std@@@simple_msgs@@Vsimple_msgs_msg_Num_common@@@@UEAA_JAEBV?$basic_string@DU?$char_traits@D@std@@V?$allocator@D@2@@std@@_NV?$shared_ptr@VNodeHandle@ros@@@3@@Z
	?createPublisher@MATLABPublisherInterface@@UEAA_JAEBV?$basic_string@DU?$char_traits@D@std@@V?$allocator@D@2@@std@@_NV?$shared_ptr@VNodeHandle@ros@@@3@@Z
	?createStructArray@ArrayFactory@data@matlab@@QEAA?AVStructArray@23@V?$vector@_KV?$allocator@_K@std@@@std@@V?$vector@V?$basic_string@DU?$char_traits@D@std@@V?$allocator@D@2@@std@@V?$allocator@V?$basic_string@DU?$char_traits@D@std@@V?$allocator@D@2@@std@@@2@@6@@Z
	?createSubscription@?$ROSSubscriberImpl@U?$AddTwoIntsRequest_@V?$allocator@X@std@@@simple_msgs@@V?$shared_ptr@$$CBU?$AddTwoIntsRequest_@V?$allocator@X@std@@@simple_msgs@@@mwboost@@Vsimple_msgs_msg_AddTwoIntsRequest_common@@@@UEAA_JAEBV?$basic_string@DU?$char_traits@D@std@@V?$allocator@D@2@@std@@V?$shared_ptr@VNodeHandle@ros@@@3@PEAXP6A_N2AEBV?$vector@VArray@data@matlab@@V?$allocator@VArray@data@matlab@@@std@@@3@@ZI@Z
	?createSubscription@?$ROSSubscriberImpl@U?$AddTwoIntsResponse_@V?$allocator@X@std@@@simple_msgs@@V?$shared_ptr@$$CBU?$AddTwoIntsResponse_@V?$allocator@X@std@@@simple_msgs@@@mwboost@@Vsimple_msgs_msg_AddTwoIntsResponse_common@@@@UEAA_JAEBV?$basic_string@DU?$char_traits@D@std@@V?$allocator@D@2@@std@@V?$shared_ptr@VNodeHandle@ros@@@3@PEAXP6A_N2AEBV?$vector@VArray@data@matlab@@V?$allocator@VArray@data@matlab@@@std@@@3@@ZI@Z
	?createSubscription@?$ROSSubscriberImpl@U?$Num_@V?$allocator@X@std@@@simple_msgs@@V?$shared_ptr@$$CBU?$Num_@V?$allocator@X@std@@@simple_msgs@@@mwboost@@Vsimple_msgs_msg_Num_common@@@@UEAA_JAEBV?$basic_string@DU?$char_traits@D@std@@V?$allocator@D@2@@std@@V?$shared_ptr@VNodeHandle@ros@@@3@PEAXP6A_N2AEBV?$vector@VArray@data@matlab@@V?$allocator@VArray@data@matlab@@@std@@@3@@ZI@Z
	?createSubscription@MATLABSubscriberInterface@@UEAA_JAEBV?$basic_string@DU?$char_traits@D@std@@V?$allocator@D@2@@std@@V?$shared_ptr@VNodeHandle@ros@@@3@PEAXP6A_N2AEBV?$vector@VArray@data@matlab@@V?$allocator@VArray@data@matlab@@@std@@@3@@ZI@Z
	?createSvcClient@?$ROSSvcClientImpl@UAddTwoInts@simple_msgs@@U?$AddTwoIntsRequest_@V?$allocator@X@std@@@2@U?$AddTwoIntsResponse_@V?$allocator@X@std@@@2@Vsimple_msgs_msg_AddTwoIntsRequest_common@@Vsimple_msgs_msg_AddTwoIntsResponse_common@@@@UEAA_JAEBV?$basic_string@DU?$char_traits@D@std@@V?$allocator@D@2@@std@@V?$shared_ptr@VNodeHandle@ros@@@3@@Z
	?createSvcClient@MATLABSvcClientInterface@@UEAA_JAEBV?$basic_string@DU?$char_traits@D@std@@V?$allocator@D@2@@std@@V?$shared_ptr@VNodeHandle@ros@@@3@@Z
	?createSvcServer@?$ROSSvcServerImpl@U?$AddTwoIntsRequest_@V?$allocator@X@std@@@simple_msgs@@U?$AddTwoIntsResponse_@V?$allocator@X@std@@@2@Vsimple_msgs_msg_AddTwoIntsRequest_common@@Vsimple_msgs_msg_AddTwoIntsResponse_common@@@@UEAA_JAEBV?$basic_string@DU?$char_traits@D@std@@V?$allocator@D@2@@std@@V?$shared_ptr@VNodeHandle@ros@@@3@PEAXP6A_N2AEBV?$vector@VArray@data@matlab@@V?$allocator@VArray@data@matlab@@@std@@@3@@Z_J@Z
	?createSvcServer@MATLABSvcServerInterface@@UEAA_JAEBV?$basic_string@DU?$char_traits@D@std@@V?$allocator@D@2@@std@@V?$shared_ptr@VNodeHandle@ros@@@3@PEAXP6A_N2AEBV?$vector@VArray@data@matlab@@V?$allocator@VArray@data@matlab@@@std@@@3@@Z_J@Z
	?create_anonymous_event@win32@detail@mwboost@@YAPEAXW4event_type@123@W4initial_event_state@123@@Z
	?default_error_condition@error_category@system@mwboost@@UEBA?AVerror_condition@23@H@Z
	?deserialize@?$SubscriptionCallbackHelperT@AEBV?$shared_ptr@$$CBU?$AddTwoIntsRequest_@V?$allocator@X@std@@@simple_msgs@@@mwboost@@X@ros@@UEAA?AV?$shared_ptr@$$CBX@mwboost@@AEBUSubscriptionCallbackHelperDeserializeParams@2@@Z
	?deserialize@?$SubscriptionCallbackHelperT@AEBV?$shared_ptr@$$CBU?$AddTwoIntsResponse_@V?$allocator@X@std@@@simple_msgs@@@mwboost@@X@ros@@UEAA?AV?$shared_ptr@$$CBX@mwboost@@AEBUSubscriptionCallbackHelperDeserializeParams@2@@Z
	?deserialize@?$SubscriptionCallbackHelperT@AEBV?$shared_ptr@$$CBU?$Num_@V?$allocator@X@std@@@simple_msgs@@@mwboost@@X@ros@@UEAA?AV?$shared_ptr@$$CBX@mwboost@@AEBUSubscriptionCallbackHelperDeserializeParams@2@@Z
	?destroy@?$sp_ms_deleter@V?$ServiceCallbackHelperT@U?$ServiceSpec@U?$AddTwoIntsRequest_@V?$allocator@X@std@@@simple_msgs@@U?$AddTwoIntsResponse_@V?$allocator@X@std@@@2@@ros@@@ros@@@detail@mwboost@@AEAAXXZ
	?destroy@?$sp_ms_deleter@V?$SubscriptionCallbackHelperT@AEBV?$shared_ptr@$$CBU?$AddTwoIntsRequest_@V?$allocator@X@std@@@simple_msgs@@@mwboost@@X@ros@@@detail@mwboost@@AEAAXXZ
	?destroy@?$sp_ms_deleter@V?$SubscriptionCallbackHelperT@AEBV?$shared_ptr@$$CBU?$AddTwoIntsResponse_@V?$allocator@X@std@@@simple_msgs@@@mwboost@@X@ros@@@detail@mwboost@@AEAAXXZ
	?destroy@?$sp_ms_deleter@V?$SubscriptionCallbackHelperT@AEBV?$shared_ptr@$$CBU?$Num_@V?$allocator@X@std@@@simple_msgs@@@mwboost@@X@ros@@@detail@mwboost@@AEAAXXZ
	?destroy@?$sp_ms_deleter@V?$map@V?$basic_string@DU?$char_traits@D@std@@V?$allocator@D@2@@std@@V12@U?$less@V?$basic_string@DU?$char_traits@D@std@@V?$allocator@D@2@@std@@@2@V?$allocator@U?$pair@$$CBV?$basic_string@DU?$char_traits@D@std@@V?$allocator@D@2@@std@@V12@@std@@@2@@std@@@detail@mwboost@@AEAAXXZ
	?destroy@sp_counted_base@detail@mwboost@@UEAAXXZ
	?dispose@?$sp_counted_impl_p@V?$clone_impl@Ubad_alloc_@exception_detail@mwboost@@@exception_detail@mwboost@@@detail@mwboost@@UEAAXXZ
	?dispose@?$sp_counted_impl_p@V?$clone_impl@Ubad_exception_@exception_detail@mwboost@@@exception_detail@mwboost@@@detail@mwboost@@UEAAXXZ
	?dispose@?$sp_counted_impl_pd@PEAEU?$checked_array_deleter@E@mwboost@@@detail@mwboost@@UEAAXXZ
	?dispose@?$sp_counted_impl_pd@PEAU?$AddTwoIntsRequest_@V?$allocator@X@std@@@simple_msgs@@V?$sp_ms_deleter@U?$AddTwoIntsRequest_@V?$allocator@X@std@@@simple_msgs@@@detail@mwboost@@@detail@mwboost@@UEAAXXZ
	?dispose@?$sp_counted_impl_pd@PEAU?$AddTwoIntsResponse_@V?$allocator@X@std@@@simple_msgs@@V?$sp_ms_deleter@U?$AddTwoIntsResponse_@V?$allocator@X@std@@@simple_msgs@@@detail@mwboost@@@detail@mwboost@@UEAAXXZ
	?dispose@?$sp_counted_impl_pd@PEAU?$Num_@V?$allocator@X@std@@@simple_msgs@@V?$sp_ms_deleter@U?$Num_@V?$allocator@X@std@@@simple_msgs@@@detail@mwboost@@@detail@mwboost@@UEAAXXZ
	?dispose@?$sp_counted_impl_pd@PEAV?$ServiceCallbackHelperT@U?$ServiceSpec@U?$AddTwoIntsRequest_@V?$allocator@X@std@@@simple_msgs@@U?$AddTwoIntsResponse_@V?$allocator@X@std@@@2@@ros@@@ros@@V?$sp_ms_deleter@V?$ServiceCallbackHelperT@U?$ServiceSpec@U?$AddTwoIntsRequest_@V?$allocator@X@std@@@simple_msgs@@U?$AddTwoIntsResponse_@V?$allocator@X@std@@@2@@ros@@@ros@@@detail@mwboost@@@detail@mwboost@@UEAAXXZ
	?dispose@?$sp_counted_impl_pd@PEAV?$SubscriptionCallbackHelperT@AEBV?$shared_ptr@$$CBU?$AddTwoIntsRequest_@V?$allocator@X@std@@@simple_msgs@@@mwboost@@X@ros@@V?$sp_ms_deleter@V?$SubscriptionCallbackHelperT@AEBV?$shared_ptr@$$CBU?$AddTwoIntsRequest_@V?$allocator@X@std@@@simple_msgs@@@mwboost@@X@ros@@@detail@mwboost@@@detail@mwboost@@UEAAXXZ
	?dispose@?$sp_counted_impl_pd@PEAV?$SubscriptionCallbackHelperT@AEBV?$shared_ptr@$$CBU?$AddTwoIntsResponse_@V?$allocator@X@std@@@simple_msgs@@@mwboost@@X@ros@@V?$sp_ms_deleter@V?$SubscriptionCallbackHelperT@AEBV?$shared_ptr@$$CBU?$AddTwoIntsResponse_@V?$allocator@X@std@@@simple_msgs@@@mwboost@@X@ros@@@detail@mwboost@@@detail@mwboost@@UEAAXXZ
	?dispose@?$sp_counted_impl_pd@PEAV?$SubscriptionCallbackHelperT@AEBV?$shared_ptr@$$CBU?$Num_@V?$allocator@X@std@@@simple_msgs@@@mwboost@@X@ros@@V?$sp_ms_deleter@V?$SubscriptionCallbackHelperT@AEBV?$shared_ptr@$$CBU?$Num_@V?$allocator@X@std@@@simple_msgs@@@mwboost@@X@ros@@@detail@mwboost@@@detail@mwboost@@UEAAXXZ
	?dispose@?$sp_counted_impl_pd@PEAV?$map@V?$basic_string@DU?$char_traits@D@std@@V?$allocator@D@2@@std@@V12@U?$less@V?$basic_string@DU?$char_traits@D@std@@V?$allocator@D@2@@std@@@2@V?$allocator@U?$pair@$$CBV?$basic_string@DU?$char_traits@D@std@@V?$allocator@D@2@@std@@V12@@std@@@2@@std@@V?$sp_ms_deleter@V?$map@V?$basic_string@DU?$char_traits@D@std@@V?$allocator@D@2@@std@@V12@U?$less@V?$basic_string@DU?$char_traits@D@std@@V?$allocator@D@2@@std@@@2@V?$allocator@U?$pair@$$CBV?$basic_string@DU?$char_traits@D@std@@V?$allocator@D@2@@std@@V12@@std@@@2@@std@@@detail@mwboost@@@detail@mwboost@@UEAAXXZ
	?end@?$basic_string@DU?$char_traits@D@std@@V?$allocator@D@2@@std@@QEBA?AV?$_String_const_iterator@V?$_String_val@U?$_Simple_types@D@std@@@std@@@2@XZ
	?equal@stl_type_index@typeindex@mwboost@@QEBA_NAEBV123@@Z
	?equivalent@error_category@system@mwboost@@UEBA_NAEBVerror_code@23@H@Z
	?equivalent@error_category@system@mwboost@@UEBA_NHAEBVerror_condition@23@@Z
	?erase@?$_Tree@V?$_Tmap_traits@_JU?$AddTwoIntsRequest_@V?$allocator@X@std@@@simple_msgs@@U?$less@_J@std@@V?$allocator@U?$pair@$$CB_JU?$AddTwoIntsRequest_@V?$allocator@X@std@@@simple_msgs@@@std@@@4@$0A@@std@@@std@@QEAA_KAEB_J@Z
	?failed@error_category@system@mwboost@@UEBA_NH@Z
	?generateActClientInterface@ROSMsgElementInterfaceFactory@@UEAA?AV?$shared_ptr@VMATLABActClientInterface@@@std@@XZ
	?generateActServerInterface@ROSMsgElementInterfaceFactory@@UEAA?AV?$shared_ptr@VMATLABActServerInterface@@@std@@XZ
	?generatePublisherInterface@simple_msgs_AddTwoInts_service@@UEAA?AV?$shared_ptr@VMATLABPublisherInterface@@@std@@W4ElementType@@@Z
	?generatePublisherInterface@simple_msgs_Num_message@@UEAA?AV?$shared_ptr@VMATLABPublisherInterface@@@std@@W4ElementType@@@Z
	?generateRosbagWriterInterface@ROSMsgElementInterfaceFactory@@UEAA?AV?$shared_ptr@VMATLABRosbagWriterInterface@@@std@@W4ElementType@@@Z
	?generateRosbagWriterInterface@simple_msgs_AddTwoInts_service@@UEAA?AV?$shared_ptr@VMATLABRosbagWriterInterface@@@std@@W4ElementType@@@Z
	?generateRosbagWriterInterface@simple_msgs_Num_message@@UEAA?AV?$shared_ptr@VMATLABRosbagWriterInterface@@@std@@W4ElementType@@@Z
	?generateSubscriberInterface@simple_msgs_AddTwoInts_service@@UEAA?AV?$shared_ptr@VMATLABSubscriberInterface@@@std@@W4ElementType@@@Z
	?generateSubscriberInterface@simple_msgs_Num_message@@UEAA?AV?$shared_ptr@VMATLABSubscriberInterface@@@std@@W4ElementType@@@Z
	?generateSvcClientInterface@ROSMsgElementInterfaceFactory@@UEAA?AV?$shared_ptr@VMATLABSvcClientInterface@@@std@@XZ
	?generateSvcClientInterface@simple_msgs_AddTwoInts_service@@UEAA?AV?$shared_ptr@VMATLABSvcClientInterface@@@std@@XZ
	?generateSvcServerInterface@ROSMsgElementInterfaceFactory@@UEAA?AV?$shared_ptr@VMATLABSvcServerInterface@@@std@@XZ
	?generateSvcServerInterface@simple_msgs_AddTwoInts_service@@UEAA?AV?$shared_ptr@VMATLABSvcServerInterface@@@std@@XZ
	?generic_error_category_message@detail@system@mwboost@@YAPEBDHPEAD_K@Z
	?getCallbackError@MATLABSvcServerInterface@@UEAA_NXZ
	?getCurrentReqId@MATLABSvcClientInterface@@UEBA_JXZ
	?getNextRequestTimeoutState@MATLABSvcClientInterface@@IEAA_NXZ
	?getType@Array@data@matlab@@QEBA?AW4ArrayType@23@XZ
	?getTypeInfo@?$SubscriptionCallbackHelperT@AEBV?$shared_ptr@$$CBU?$AddTwoIntsRequest_@V?$allocator@X@std@@@simple_msgs@@@mwboost@@X@ros@@UEAAAEBVtype_info@@XZ
	?getTypeInfo@?$SubscriptionCallbackHelperT@AEBV?$shared_ptr@$$CBU?$AddTwoIntsResponse_@V?$allocator@X@std@@@simple_msgs@@@mwboost@@X@ros@@UEAAAEBVtype_info@@XZ
	?getTypeInfo@?$SubscriptionCallbackHelperT@AEBV?$shared_ptr@$$CBU?$Num_@V?$allocator@X@std@@@simple_msgs@@@mwboost@@X@ros@@UEAAAEBVtype_info@@XZ
	?get_arr@simple_msgs_msg_AddTwoIntsRequest_common@@UEAA?AVArray@data@matlab@@AEAVArrayFactory@34@PEBU?$AddTwoIntsRequest_@V?$allocator@X@std@@@simple_msgs@@PEAVMultiLibraryClassLoader@ros1_class_loader@@_K@Z
	?get_arr@simple_msgs_msg_AddTwoIntsResponse_common@@UEAA?AVArray@data@matlab@@AEAVArrayFactory@34@PEBU?$AddTwoIntsResponse_@V?$allocator@X@std@@@simple_msgs@@PEAVMultiLibraryClassLoader@ros1_class_loader@@_K@Z
	?get_arr@simple_msgs_msg_Num_common@@UEAA?AVArray@data@matlab@@AEAVArrayFactory@34@PEBU?$Num_@V?$allocator@X@std@@@simple_msgs@@PEAVMultiLibraryClassLoader@ros1_class_loader@@_K@Z
	?get_deleter@?$sp_counted_impl_p@V?$clone_impl@Ubad_alloc_@exception_detail@mwboost@@@exception_detail@mwboost@@@detail@mwboost@@UEAAPEAXAEBVtype_info@@@Z
	?get_deleter@?$sp_counted_impl_p@V?$clone_impl@Ubad_exception_@exception_detail@mwboost@@@exception_detail@mwboost@@@detail@mwboost@@UEAAPEAXAEBVtype_info@@@Z
	?get_deleter@?$sp_counted_impl_pd@PEAEU?$checked_array_deleter@E@mwboost@@@detail@mwboost@@UEAAPEAXAEBVtype_info@@@Z
	?get_deleter@?$sp_counted_impl_pd@PEAU?$AddTwoIntsRequest_@V?$allocator@X@std@@@simple_msgs@@V?$sp_ms_deleter@U?$AddTwoIntsRequest_@V?$allocator@X@std@@@simple_msgs@@@detail@mwboost@@@detail@mwboost@@UEAAPEAXAEBVtype_info@@@Z
	?get_deleter@?$sp_counted_impl_pd@PEAU?$AddTwoIntsResponse_@V?$allocator@X@std@@@simple_msgs@@V?$sp_ms_deleter@U?$AddTwoIntsResponse_@V?$allocator@X@std@@@simple_msgs@@@detail@mwboost@@@detail@mwboost@@UEAAPEAXAEBVtype_info@@@Z
	?get_deleter@?$sp_counted_impl_pd@PEAU?$Num_@V?$allocator@X@std@@@simple_msgs@@V?$sp_ms_deleter@U?$Num_@V?$allocator@X@std@@@simple_msgs@@@detail@mwboost@@@detail@mwboost@@UEAAPEAXAEBVtype_info@@@Z
	?get_deleter@?$sp_counted_impl_pd@PEAV?$ServiceCallbackHelperT@U?$ServiceSpec@U?$AddTwoIntsRequest_@V?$allocator@X@std@@@simple_msgs@@U?$AddTwoIntsResponse_@V?$allocator@X@std@@@2@@ros@@@ros@@V?$sp_ms_deleter@V?$ServiceCallbackHelperT@U?$ServiceSpec@U?$AddTwoIntsRequest_@V?$allocator@X@std@@@simple_msgs@@U?$AddTwoIntsResponse_@V?$allocator@X@std@@@2@@ros@@@ros@@@detail@mwboost@@@detail@mwboost@@UEAAPEAXAEBVtype_info@@@Z
	?get_deleter@?$sp_counted_impl_pd@PEAV?$SubscriptionCallbackHelperT@AEBV?$shared_ptr@$$CBU?$AddTwoIntsRequest_@V?$allocator@X@std@@@simple_msgs@@@mwboost@@X@ros@@V?$sp_ms_deleter@V?$SubscriptionCallbackHelperT@AEBV?$shared_ptr@$$CBU?$AddTwoIntsRequest_@V?$allocator@X@std@@@simple_msgs@@@mwboost@@X@ros@@@detail@mwboost@@@detail@mwboost@@UEAAPEAXAEBVtype_info@@@Z
	?get_deleter@?$sp_counted_impl_pd@PEAV?$SubscriptionCallbackHelperT@AEBV?$shared_ptr@$$CBU?$AddTwoIntsResponse_@V?$allocator@X@std@@@simple_msgs@@@mwboost@@X@ros@@V?$sp_ms_deleter@V?$SubscriptionCallbackHelperT@AEBV?$shared_ptr@$$CBU?$AddTwoIntsResponse_@V?$allocator@X@std@@@simple_msgs@@@mwboost@@X@ros@@@detail@mwboost@@@detail@mwboost@@UEAAPEAXAEBVtype_info@@@Z
	?get_deleter@?$sp_counted_impl_pd@PEAV?$SubscriptionCallbackHelperT@AEBV?$shared_ptr@$$CBU?$Num_@V?$allocator@X@std@@@simple_msgs@@@mwboost@@X@ros@@V?$sp_ms_deleter@V?$SubscriptionCallbackHelperT@AEBV?$shared_ptr@$$CBU?$Num_@V?$allocator@X@std@@@simple_msgs@@@mwboost@@X@ros@@@detail@mwboost@@@detail@mwboost@@UEAAPEAXAEBVtype_info@@@Z
	?get_deleter@?$sp_counted_impl_pd@PEAV?$map@V?$basic_string@DU?$char_traits@D@std@@V?$allocator@D@2@@std@@V12@U?$less@V?$basic_string@DU?$char_traits@D@std@@V?$allocator@D@2@@std@@@2@V?$allocator@U?$pair@$$CBV?$basic_string@DU?$char_traits@D@std@@V?$allocator@D@2@@std@@V12@@std@@@2@@std@@V?$sp_ms_deleter@V?$map@V?$basic_string@DU?$char_traits@D@std@@V?$allocator@D@2@@std@@V12@U?$less@V?$basic_string@DU?$char_traits@D@std@@V?$allocator@D@2@@std@@@2@V?$allocator@U?$pair@$$CBV?$basic_string@DU?$char_traits@D@std@@V?$allocator@D@2@@std@@V12@@std@@@2@@std@@@detail@mwboost@@@detail@mwboost@@UEAAPEAXAEBVtype_info@@@Z
	?get_event@basic_timed_mutex@detail@mwboost@@AEAAPEAXXZ
	?get_local_deleter@?$sp_counted_impl_p@V?$clone_impl@Ubad_alloc_@exception_detail@mwboost@@@exception_detail@mwboost@@@detail@mwboost@@UEAAPEAXAEBVtype_info@@@Z
	?get_local_deleter@?$sp_counted_impl_p@V?$clone_impl@Ubad_exception_@exception_detail@mwboost@@@exception_detail@mwboost@@@detail@mwboost@@UEAAPEAXAEBVtype_info@@@Z
	?get_local_deleter@?$sp_counted_impl_pd@PEAEU?$checked_array_deleter@E@mwboost@@@detail@mwboost@@UEAAPEAXAEBVtype_info@@@Z
	?get_local_deleter@?$sp_counted_impl_pd@PEAU?$AddTwoIntsRequest_@V?$allocator@X@std@@@simple_msgs@@V?$sp_ms_deleter@U?$AddTwoIntsRequest_@V?$allocator@X@std@@@simple_msgs@@@detail@mwboost@@@detail@mwboost@@UEAAPEAXAEBVtype_info@@@Z
	?get_local_deleter@?$sp_counted_impl_pd@PEAU?$AddTwoIntsResponse_@V?$allocator@X@std@@@simple_msgs@@V?$sp_ms_deleter@U?$AddTwoIntsResponse_@V?$allocator@X@std@@@simple_msgs@@@detail@mwboost@@@detail@mwboost@@UEAAPEAXAEBVtype_info@@@Z
	?get_local_deleter@?$sp_counted_impl_pd@PEAU?$Num_@V?$allocator@X@std@@@simple_msgs@@V?$sp_ms_deleter@U?$Num_@V?$allocator@X@std@@@simple_msgs@@@detail@mwboost@@@detail@mwboost@@UEAAPEAXAEBVtype_info@@@Z
	?get_local_deleter@?$sp_counted_impl_pd@PEAV?$ServiceCallbackHelperT@U?$ServiceSpec@U?$AddTwoIntsRequest_@V?$allocator@X@std@@@simple_msgs@@U?$AddTwoIntsResponse_@V?$allocator@X@std@@@2@@ros@@@ros@@V?$sp_ms_deleter@V?$ServiceCallbackHelperT@U?$ServiceSpec@U?$AddTwoIntsRequest_@V?$allocator@X@std@@@simple_msgs@@U?$AddTwoIntsResponse_@V?$allocator@X@std@@@2@@ros@@@ros@@@detail@mwboost@@@detail@mwboost@@UEAAPEAXAEBVtype_info@@@Z
	?get_local_deleter@?$sp_counted_impl_pd@PEAV?$SubscriptionCallbackHelperT@AEBV?$shared_ptr@$$CBU?$AddTwoIntsRequest_@V?$allocator@X@std@@@simple_msgs@@@mwboost@@X@ros@@V?$sp_ms_deleter@V?$SubscriptionCallbackHelperT@AEBV?$shared_ptr@$$CBU?$AddTwoIntsRequest_@V?$allocator@X@std@@@simple_msgs@@@mwboost@@X@ros@@@detail@mwboost@@@detail@mwboost@@UEAAPEAXAEBVtype_info@@@Z
	?get_local_deleter@?$sp_counted_impl_pd@PEAV?$SubscriptionCallbackHelperT@AEBV?$shared_ptr@$$CBU?$AddTwoIntsResponse_@V?$allocator@X@std@@@simple_msgs@@@mwboost@@X@ros@@V?$sp_ms_deleter@V?$SubscriptionCallbackHelperT@AEBV?$shared_ptr@$$CBU?$AddTwoIntsResponse_@V?$allocator@X@std@@@simple_msgs@@@mwboost@@X@ros@@@detail@mwboost@@@detail@mwboost@@UEAAPEAXAEBVtype_info@@@Z
	?get_local_deleter@?$sp_counted_impl_pd@PEAV?$SubscriptionCallbackHelperT@AEBV?$shared_ptr@$$CBU?$Num_@V?$allocator@X@std@@@simple_msgs@@@mwboost@@X@ros@@V?$sp_ms_deleter@V?$SubscriptionCallbackHelperT@AEBV?$shared_ptr@$$CBU?$Num_@V?$allocator@X@std@@@simple_msgs@@@mwboost@@X@ros@@@detail@mwboost@@@detail@mwboost@@UEAAPEAXAEBVtype_info@@@Z
	?get_local_deleter@?$sp_counted_impl_pd@PEAV?$map@V?$basic_string@DU?$char_traits@D@std@@V?$allocator@D@2@@std@@V12@U?$less@V?$basic_string@DU?$char_traits@D@std@@V?$allocator@D@2@@std@@@2@V?$allocator@U?$pair@$$CBV?$basic_string@DU?$char_traits@D@std@@V?$allocator@D@2@@std@@V12@@std@@@2@@std@@V?$sp_ms_deleter@V?$map@V?$basic_string@DU?$char_traits@D@std@@V?$allocator@D@2@@std@@V12@U?$less@V?$basic_string@DU?$char_traits@D@std@@V?$allocator@D@2@@std@@@2@V?$allocator@U?$pair@$$CBV?$basic_string@DU?$char_traits@D@std@@V?$allocator@D@2@@std@@V12@@std@@@2@@std@@@detail@mwboost@@@detail@mwboost@@UEAAPEAXAEBVtype_info@@@Z
	?get_requestId_from_arr@MATLABSvcClientInterface@@QEAA_JAEBVStructArray@data@matlab@@@Z
	?get_untyped_deleter@?$sp_counted_impl_p@V?$clone_impl@Ubad_alloc_@exception_detail@mwboost@@@exception_detail@mwboost@@@detail@mwboost@@UEAAPEAXXZ
	?get_untyped_deleter@?$sp_counted_impl_p@V?$clone_impl@Ubad_exception_@exception_detail@mwboost@@@exception_detail@mwboost@@@detail@mwboost@@UEAAPEAXXZ
	?get_untyped_deleter@?$sp_counted_impl_pd@PEAEU?$checked_array_deleter@E@mwboost@@@detail@mwboost@@UEAAPEAXXZ
	?get_untyped_deleter@?$sp_counted_impl_pd@PEAU?$AddTwoIntsRequest_@V?$allocator@X@std@@@simple_msgs@@V?$sp_ms_deleter@U?$AddTwoIntsRequest_@V?$allocator@X@std@@@simple_msgs@@@detail@mwboost@@@detail@mwboost@@UEAAPEAXXZ
	?get_untyped_deleter@?$sp_counted_impl_pd@PEAU?$AddTwoIntsResponse_@V?$allocator@X@std@@@simple_msgs@@V?$sp_ms_deleter@U?$AddTwoIntsResponse_@V?$allocator@X@std@@@simple_msgs@@@detail@mwboost@@@detail@mwboost@@UEAAPEAXXZ
	?get_untyped_deleter@?$sp_counted_impl_pd@PEAU?$Num_@V?$allocator@X@std@@@simple_msgs@@V?$sp_ms_deleter@U?$Num_@V?$allocator@X@std@@@simple_msgs@@@detail@mwboost@@@detail@mwboost@@UEAAPEAXXZ
	?get_untyped_deleter@?$sp_counted_impl_pd@PEAV?$ServiceCallbackHelperT@U?$ServiceSpec@U?$AddTwoIntsRequest_@V?$allocator@X@std@@@simple_msgs@@U?$AddTwoIntsResponse_@V?$allocator@X@std@@@2@@ros@@@ros@@V?$sp_ms_deleter@V?$ServiceCallbackHelperT@U?$ServiceSpec@U?$AddTwoIntsRequest_@V?$allocator@X@std@@@simple_msgs@@U?$AddTwoIntsResponse_@V?$allocator@X@std@@@2@@ros@@@ros@@@detail@mwboost@@@detail@mwboost@@UEAAPEAXXZ
	?get_untyped_deleter@?$sp_counted_impl_pd@PEAV?$SubscriptionCallbackHelperT@AEBV?$shared_ptr@$$CBU?$AddTwoIntsRequest_@V?$allocator@X@std@@@simple_msgs@@@mwboost@@X@ros@@V?$sp_ms_deleter@V?$SubscriptionCallbackHelperT@AEBV?$shared_ptr@$$CBU?$AddTwoIntsRequest_@V?$allocator@X@std@@@simple_msgs@@@mwboost@@X@ros@@@detail@mwboost@@@detail@mwboost@@UEAAPEAXXZ
	?get_untyped_deleter@?$sp_counted_impl_pd@PEAV?$SubscriptionCallbackHelperT@AEBV?$shared_ptr@$$CBU?$AddTwoIntsResponse_@V?$allocator@X@std@@@simple_msgs@@@mwboost@@X@ros@@V?$sp_ms_deleter@V?$SubscriptionCallbackHelperT@AEBV?$shared_ptr@$$CBU?$AddTwoIntsResponse_@V?$allocator@X@std@@@simple_msgs@@@mwboost@@X@ros@@@detail@mwboost@@@detail@mwboost@@UEAAPEAXXZ
	?get_untyped_deleter@?$sp_counted_impl_pd@PEAV?$SubscriptionCallbackHelperT@AEBV?$shared_ptr@$$CBU?$Num_@V?$allocator@X@std@@@simple_msgs@@@mwboost@@X@ros@@V?$sp_ms_deleter@V?$SubscriptionCallbackHelperT@AEBV?$shared_ptr@$$CBU?$Num_@V?$allocator@X@std@@@simple_msgs@@@mwboost@@X@ros@@@detail@mwboost@@@detail@mwboost@@UEAAPEAXXZ
	?get_untyped_deleter@?$sp_counted_impl_pd@PEAV?$map@V?$basic_string@DU?$char_traits@D@std@@V?$allocator@D@2@@std@@V12@U?$less@V?$basic_string@DU?$char_traits@D@std@@V?$allocator@D@2@@std@@@2@V?$allocator@U?$pair@$$CBV?$basic_string@DU?$char_traits@D@std@@V?$allocator@D@2@@std@@V12@@std@@@2@@std@@V?$sp_ms_deleter@V?$map@V?$basic_string@DU?$char_traits@D@std@@V?$allocator@D@2@@std@@V12@U?$less@V?$basic_string@DU?$char_traits@D@std@@V?$allocator@D@2@@std@@@2@V?$allocator@U?$pair@$$CBV?$basic_string@DU?$char_traits@D@std@@V?$allocator@D@2@@std@@V12@@std@@@2@@std@@@detail@mwboost@@@detail@mwboost@@UEAAPEAXXZ
	?hasHeader@?$SubscriptionCallbackHelperT@AEBV?$shared_ptr@$$CBU?$AddTwoIntsRequest_@V?$allocator@X@std@@@simple_msgs@@@mwboost@@X@ros@@UEAA_NXZ
	?hasHeader@?$SubscriptionCallbackHelperT@AEBV?$shared_ptr@$$CBU?$AddTwoIntsResponse_@V?$allocator@X@std@@@simple_msgs@@@mwboost@@X@ros@@UEAA_NXZ
	?hasHeader@?$SubscriptionCallbackHelperT@AEBV?$shared_ptr@$$CBU?$Num_@V?$allocator@X@std@@@simple_msgs@@@mwboost@@X@ros@@UEAA_NXZ
	?has_empty_target@function@detail@mwboost@@YA_NZZ
	?init@?$MessageEvent@$$CBU?$AddTwoIntsRequest_@V?$allocator@X@std@@@simple_msgs@@@ros@@QEAAXAEBV?$shared_ptr@$$CBU?$AddTwoIntsRequest_@V?$allocator@X@std@@@simple_msgs@@@mwboost@@AEBV?$shared_ptr@V?$map@V?$basic_string@DU?$char_traits@D@std@@V?$allocator@D@2@@std@@V12@U?$less@V?$basic_string@DU?$char_traits@D@std@@V?$allocator@D@2@@std@@@2@V?$allocator@U?$pair@$$CBV?$basic_string@DU?$char_traits@D@std@@V?$allocator@D@2@@std@@V12@@std@@@2@@std@@@4@VTime@2@_NAEBV?$function@$$A6A?AV?$shared_ptr@U?$AddTwoIntsRequest_@V?$allocator@X@std@@@simple_msgs@@@mwboost@@XZ@4@@Z
	?init@?$MessageEvent@$$CBU?$AddTwoIntsResponse_@V?$allocator@X@std@@@simple_msgs@@@ros@@QEAAXAEBV?$shared_ptr@$$CBU?$AddTwoIntsResponse_@V?$allocator@X@std@@@simple_msgs@@@mwboost@@AEBV?$shared_ptr@V?$map@V?$basic_string@DU?$char_traits@D@std@@V?$allocator@D@2@@std@@V12@U?$less@V?$basic_string@DU?$char_traits@D@std@@V?$allocator@D@2@@std@@@2@V?$allocator@U?$pair@$$CBV?$basic_string@DU?$char_traits@D@std@@V?$allocator@D@2@@std@@V12@@std@@@2@@std@@@4@VTime@2@_NAEBV?$function@$$A6A?AV?$shared_ptr@U?$AddTwoIntsResponse_@V?$allocator@X@std@@@simple_msgs@@@mwboost@@XZ@4@@Z
	?init@?$MessageEvent@$$CBU?$Num_@V?$allocator@X@std@@@simple_msgs@@@ros@@QEAAXAEBV?$shared_ptr@$$CBU?$Num_@V?$allocator@X@std@@@simple_msgs@@@mwboost@@AEBV?$shared_ptr@V?$map@V?$basic_string@DU?$char_traits@D@std@@V?$allocator@D@2@@std@@V12@U?$less@V?$basic_string@DU?$char_traits@D@std@@V?$allocator@D@2@@std@@@2@V?$allocator@U?$pair@$$CBV?$basic_string@DU?$char_traits@D@std@@V?$allocator@D@2@@std@@V12@@std@@@2@@std@@@4@VTime@2@_NAEBV?$function@$$A6A?AV?$shared_ptr@U?$Num_@V?$allocator@X@std@@@simple_msgs@@@mwboost@@XZ@4@@Z
	?invoke@?$function_invoker0@P6A?AV?$shared_ptr@U?$AddTwoIntsRequest_@V?$allocator@X@std@@@simple_msgs@@@mwboost@@XZV12@@function@detail@mwboost@@SA?AV?$shared_ptr@U?$AddTwoIntsRequest_@V?$allocator@X@std@@@simple_msgs@@@4@AEATfunction_buffer@234@@Z
	?invoke@?$function_invoker0@P6A?AV?$shared_ptr@U?$AddTwoIntsResponse_@V?$allocator@X@std@@@simple_msgs@@@mwboost@@XZV12@@function@detail@mwboost@@SA?AV?$shared_ptr@U?$AddTwoIntsResponse_@V?$allocator@X@std@@@simple_msgs@@@4@AEATfunction_buffer@234@@Z
	?invoke@?$function_obj_invoker0@U?$DefaultMessageCreator@U?$AddTwoIntsRequest_@V?$allocator@X@std@@@simple_msgs@@@ros@@V?$shared_ptr@U?$AddTwoIntsRequest_@V?$allocator@X@std@@@simple_msgs@@@mwboost@@@function@detail@mwboost@@SA?AV?$shared_ptr@U?$AddTwoIntsRequest_@V?$allocator@X@std@@@simple_msgs@@@4@AEATfunction_buffer@234@@Z
	?invoke@?$function_obj_invoker0@U?$DefaultMessageCreator@U?$AddTwoIntsResponse_@V?$allocator@X@std@@@simple_msgs@@@ros@@V?$shared_ptr@U?$AddTwoIntsResponse_@V?$allocator@X@std@@@simple_msgs@@@mwboost@@@function@detail@mwboost@@SA?AV?$shared_ptr@U?$AddTwoIntsResponse_@V?$allocator@X@std@@@simple_msgs@@@4@AEATfunction_buffer@234@@Z
	?invoke@?$function_obj_invoker0@U?$DefaultMessageCreator@U?$Num_@V?$allocator@X@std@@@simple_msgs@@@ros@@V?$shared_ptr@U?$Num_@V?$allocator@X@std@@@simple_msgs@@@mwboost@@@function@detail@mwboost@@SA?AV?$shared_ptr@U?$Num_@V?$allocator@X@std@@@simple_msgs@@@4@AEATfunction_buffer@234@@Z
	?invoke@?$function_obj_invoker0@V?$bind_t@VSerializedMessage@ros@@P6A?AV12@AEBU?$AddTwoIntsRequest_@V?$allocator@X@std@@@simple_msgs@@@ZV?$list1@V?$reference_wrapper@U?$AddTwoIntsRequest_@V?$allocator@X@std@@@simple_msgs@@@mwboost@@@_bi@mwboost@@@_bi@mwboost@@VSerializedMessage@ros@@@function@detail@mwboost@@SA?AVSerializedMessage@ros@@AEATfunction_buffer@234@@Z
	?invoke@?$function_obj_invoker0@V?$bind_t@VSerializedMessage@ros@@P6A?AV12@AEBU?$AddTwoIntsResponse_@V?$allocator@X@std@@@simple_msgs@@@ZV?$list1@V?$reference_wrapper@U?$AddTwoIntsResponse_@V?$allocator@X@std@@@simple_msgs@@@mwboost@@@_bi@mwboost@@@_bi@mwboost@@VSerializedMessage@ros@@@function@detail@mwboost@@SA?AVSerializedMessage@ros@@AEATfunction_buffer@234@@Z
	?invoke@?$function_obj_invoker0@V?$bind_t@VSerializedMessage@ros@@P6A?AV12@AEBU?$Num_@V?$allocator@X@std@@@simple_msgs@@@ZV?$list1@V?$reference_wrapper@U?$Num_@V?$allocator@X@std@@@simple_msgs@@@mwboost@@@_bi@mwboost@@@_bi@mwboost@@VSerializedMessage@ros@@@function@detail@mwboost@@SA?AVSerializedMessage@ros@@AEATfunction_buffer@234@@Z
	?invoke@?$function_obj_invoker2@V?$bind_t@_NV?$mf2@_NV?$ROSSvcServerImpl@U?$AddTwoIntsRequest_@V?$allocator@X@std@@@simple_msgs@@U?$AddTwoIntsResponse_@V?$allocator@X@std@@@2@Vsimple_msgs_msg_AddTwoIntsRequest_common@@Vsimple_msgs_msg_AddTwoIntsResponse_common@@@@AEAU?$AddTwoIntsRequest_@V?$allocator@X@std@@@simple_msgs@@AEAU?$AddTwoIntsResponse_@V?$allocator@X@std@@@3@@_mfi@mwboost@@V?$list3@V?$value@PEAV?$ROSSvcServerImpl@U?$AddTwoIntsRequest_@V?$allocator@X@std@@@simple_msgs@@U?$AddTwoIntsResponse_@V?$allocator@X@std@@@2@Vsimple_msgs_msg_AddTwoIntsRequest_common@@Vsimple_msgs_msg_AddTwoIntsResponse_common@@@@@_bi@mwboost@@U?$arg@$00@3@U?$arg@$01@3@@_bi@3@@_bi@mwboost@@_NAEAU?$AddTwoIntsRequest_@V?$allocator@X@std@@@simple_msgs@@AEAU?$AddTwoIntsResponse_@V?$allocator@X@std@@@5@@function@detail@mwboost@@SA_NAEATfunction_buffer@234@AEAU?$AddTwoIntsRequest_@V?$allocator@X@std@@@simple_msgs@@AEAU?$AddTwoIntsResponse_@V?$allocator@X@std@@@7@@Z
	?invoke@?$void_function_obj_invoker1@V?$bind_t@XV?$mf1@XV?$ROSSubscriberImpl@U?$AddTwoIntsRequest_@V?$allocator@X@std@@@simple_msgs@@V?$shared_ptr@$$CBU?$AddTwoIntsRequest_@V?$allocator@X@std@@@simple_msgs@@@mwboost@@Vsimple_msgs_msg_AddTwoIntsRequest_common@@@@AEBV?$shared_ptr@$$CBU?$AddTwoIntsRequest_@V?$allocator@X@std@@@simple_msgs@@@mwboost@@@_mfi@mwboost@@V?$list2@V?$value@PEAV?$ROSSubscriberImpl@U?$AddTwoIntsRequest_@V?$allocator@X@std@@@simple_msgs@@V?$shared_ptr@$$CBU?$AddTwoIntsRequest_@V?$allocator@X@std@@@simple_msgs@@@mwboost@@Vsimple_msgs_msg_AddTwoIntsRequest_common@@@@@_bi@mwboost@@U?$arg@$00@3@@_bi@3@@_bi@mwboost@@XAEBV?$shared_ptr@$$CBU?$AddTwoIntsRequest_@V?$allocator@X@std@@@simple_msgs@@@3@@function@detail@mwboost@@SAXAEATfunction_buffer@234@AEBV?$shared_ptr@$$CBU?$AddTwoIntsRequest_@V?$allocator@X@std@@@simple_msgs@@@4@@Z
	?invoke@?$void_function_obj_invoker1@V?$bind_t@XV?$mf1@XV?$ROSSubscriberImpl@U?$AddTwoIntsResponse_@V?$allocator@X@std@@@simple_msgs@@V?$shared_ptr@$$CBU?$AddTwoIntsResponse_@V?$allocator@X@std@@@simple_msgs@@@mwboost@@Vsimple_msgs_msg_AddTwoIntsResponse_common@@@@AEBV?$shared_ptr@$$CBU?$AddTwoIntsResponse_@V?$allocator@X@std@@@simple_msgs@@@mwboost@@@_mfi@mwboost@@V?$list2@V?$value@PEAV?$ROSSubscriberImpl@U?$AddTwoIntsResponse_@V?$allocator@X@std@@@simple_msgs@@V?$shared_ptr@$$CBU?$AddTwoIntsResponse_@V?$allocator@X@std@@@simple_msgs@@@mwboost@@Vsimple_msgs_msg_AddTwoIntsResponse_common@@@@@_bi@mwboost@@U?$arg@$00@3@@_bi@3@@_bi@mwboost@@XAEBV?$shared_ptr@$$CBU?$AddTwoIntsResponse_@V?$allocator@X@std@@@simple_msgs@@@3@@function@detail@mwboost@@SAXAEATfunction_buffer@234@AEBV?$shared_ptr@$$CBU?$AddTwoIntsResponse_@V?$allocator@X@std@@@simple_msgs@@@4@@Z
	?invoke@?$void_function_obj_invoker1@V?$bind_t@XV?$mf1@XV?$ROSSubscriberImpl@U?$Num_@V?$allocator@X@std@@@simple_msgs@@V?$shared_ptr@$$CBU?$Num_@V?$allocator@X@std@@@simple_msgs@@@mwboost@@Vsimple_msgs_msg_Num_common@@@@AEBV?$shared_ptr@$$CBU?$Num_@V?$allocator@X@std@@@simple_msgs@@@mwboost@@@_mfi@mwboost@@V?$list2@V?$value@PEAV?$ROSSubscriberImpl@U?$Num_@V?$allocator@X@std@@@simple_msgs@@V?$shared_ptr@$$CBU?$Num_@V?$allocator@X@std@@@simple_msgs@@@mwboost@@Vsimple_msgs_msg_Num_common@@@@@_bi@mwboost@@U?$arg@$00@3@@_bi@3@@_bi@mwboost@@XAEBV?$shared_ptr@$$CBU?$Num_@V?$allocator@X@std@@@simple_msgs@@@3@@function@detail@mwboost@@SAXAEATfunction_buffer@234@AEBV?$shared_ptr@$$CBU?$Num_@V?$allocator@X@std@@@simple_msgs@@@4@@Z
	?invoke@?$void_function_obj_invoker1@V?$function@$$A6AXAEBV?$shared_ptr@$$CBU?$AddTwoIntsRequest_@V?$allocator@X@std@@@simple_msgs@@@mwboost@@@Z@mwboost@@XV?$shared_ptr@$$CBU?$AddTwoIntsRequest_@V?$allocator@X@std@@@simple_msgs@@@2@@function@detail@mwboost@@SAXAEATfunction_buffer@234@V?$shared_ptr@$$CBU?$AddTwoIntsRequest_@V?$allocator@X@std@@@simple_msgs@@@4@@Z
	?invoke@?$void_function_obj_invoker1@V?$function@$$A6AXAEBV?$shared_ptr@$$CBU?$AddTwoIntsResponse_@V?$allocator@X@std@@@simple_msgs@@@mwboost@@@Z@mwboost@@XV?$shared_ptr@$$CBU?$AddTwoIntsResponse_@V?$allocator@X@std@@@simple_msgs@@@2@@function@detail@mwboost@@SAXAEATfunction_buffer@234@V?$shared_ptr@$$CBU?$AddTwoIntsResponse_@V?$allocator@X@std@@@simple_msgs@@@4@@Z
	?invoke@?$void_function_obj_invoker1@V?$function@$$A6AXAEBV?$shared_ptr@$$CBU?$Num_@V?$allocator@X@std@@@simple_msgs@@@mwboost@@@Z@mwboost@@XV?$shared_ptr@$$CBU?$Num_@V?$allocator@X@std@@@simple_msgs@@@2@@function@detail@mwboost@@SAXAEATfunction_buffer@234@V?$shared_ptr@$$CBU?$Num_@V?$allocator@X@std@@@simple_msgs@@@4@@Z
	?isAscii7@detail@data@matlab@@YA_NAEBV?$basic_string@DU?$char_traits@D@std@@V?$allocator@D@2@@std@@@Z
	?isConst@?$SubscriptionCallbackHelperT@AEBV?$shared_ptr@$$CBU?$AddTwoIntsRequest_@V?$allocator@X@std@@@simple_msgs@@@mwboost@@X@ros@@UEAA_NXZ
	?isConst@?$SubscriptionCallbackHelperT@AEBV?$shared_ptr@$$CBU?$AddTwoIntsResponse_@V?$allocator@X@std@@@simple_msgs@@@mwboost@@X@ros@@UEAA_NXZ
	?isConst@?$SubscriptionCallbackHelperT@AEBV?$shared_ptr@$$CBU?$Num_@V?$allocator@X@std@@@simple_msgs@@@mwboost@@X@ros@@UEAA_NXZ
	?lock@?$basic_recursive_mutex_impl@Ubasic_timed_mutex@detail@mwboost@@@detail@mwboost@@QEAAXXZ
	?lock@basic_timed_mutex@detail@mwboost@@QEAAXXZ
	?manage@?$functor_manager@P6A?AV?$shared_ptr@U?$AddTwoIntsRequest_@V?$allocator@X@std@@@simple_msgs@@@mwboost@@XZ@function@detail@mwboost@@SAXAEBTfunction_buffer@234@AEAT5234@W4functor_manager_operation_type@234@@Z
	?manage@?$functor_manager@P6A?AV?$shared_ptr@U?$AddTwoIntsResponse_@V?$allocator@X@std@@@simple_msgs@@@mwboost@@XZ@function@detail@mwboost@@SAXAEBTfunction_buffer@234@AEAT5234@W4functor_manager_operation_type@234@@Z
	?manage@?$functor_manager@U?$DefaultMessageCreator@U?$AddTwoIntsRequest_@V?$allocator@X@std@@@simple_msgs@@@ros@@@function@detail@mwboost@@SAXAEBTfunction_buffer@234@AEAT5234@W4functor_manager_operation_type@234@@Z
	?manage@?$functor_manager@U?$DefaultMessageCreator@U?$AddTwoIntsResponse_@V?$allocator@X@std@@@simple_msgs@@@ros@@@function@detail@mwboost@@SAXAEBTfunction_buffer@234@AEAT5234@W4functor_manager_operation_type@234@@Z
	?manage@?$functor_manager@U?$DefaultMessageCreator@U?$Num_@V?$allocator@X@std@@@simple_msgs@@@ros@@@function@detail@mwboost@@SAXAEBTfunction_buffer@234@AEAT5234@W4functor_manager_operation_type@234@@Z
	?manage@?$functor_manager@V?$bind_t@VSerializedMessage@ros@@P6A?AV12@AEBU?$AddTwoIntsRequest_@V?$allocator@X@std@@@simple_msgs@@@ZV?$list1@V?$reference_wrapper@U?$AddTwoIntsRequest_@V?$allocator@X@std@@@simple_msgs@@@mwboost@@@_bi@mwboost@@@_bi@mwboost@@@function@detail@mwboost@@SAXAEBTfunction_buffer@234@AEAT5234@W4functor_manager_operation_type@234@@Z
	?manage@?$functor_manager@V?$bind_t@VSerializedMessage@ros@@P6A?AV12@AEBU?$AddTwoIntsResponse_@V?$allocator@X@std@@@simple_msgs@@@ZV?$list1@V?$reference_wrapper@U?$AddTwoIntsResponse_@V?$allocator@X@std@@@simple_msgs@@@mwboost@@@_bi@mwboost@@@_bi@mwboost@@@function@detail@mwboost@@SAXAEBTfunction_buffer@234@AEAT5234@W4functor_manager_operation_type@234@@Z
	?manage@?$functor_manager@V?$bind_t@VSerializedMessage@ros@@P6A?AV12@AEBU?$Num_@V?$allocator@X@std@@@simple_msgs@@@ZV?$list1@V?$reference_wrapper@U?$Num_@V?$allocator@X@std@@@simple_msgs@@@mwboost@@@_bi@mwboost@@@_bi@mwboost@@@function@detail@mwboost@@SAXAEBTfunction_buffer@234@AEAT5234@W4functor_manager_operation_type@234@@Z
	?manage@?$functor_manager@V?$bind_t@XV?$mf1@XV?$ROSSubscriberImpl@U?$AddTwoIntsRequest_@V?$allocator@X@std@@@simple_msgs@@V?$shared_ptr@$$CBU?$AddTwoIntsRequest_@V?$allocator@X@std@@@simple_msgs@@@mwboost@@Vsimple_msgs_msg_AddTwoIntsRequest_common@@@@AEBV?$shared_ptr@$$CBU?$AddTwoIntsRequest_@V?$allocator@X@std@@@simple_msgs@@@mwboost@@@_mfi@mwboost@@V?$list2@V?$value@PEAV?$ROSSubscriberImpl@U?$AddTwoIntsRequest_@V?$allocator@X@std@@@simple_msgs@@V?$shared_ptr@$$CBU?$AddTwoIntsRequest_@V?$allocator@X@std@@@simple_msgs@@@mwboost@@Vsimple_msgs_msg_AddTwoIntsRequest_common@@@@@_bi@mwboost@@U?$arg@$00@3@@_bi@3@@_bi@mwboost@@@function@detail@mwboost@@SAXAEBTfunction_buffer@234@AEAT5234@W4functor_manager_operation_type@234@@Z
	?manage@?$functor_manager@V?$bind_t@XV?$mf1@XV?$ROSSubscriberImpl@U?$AddTwoIntsResponse_@V?$allocator@X@std@@@simple_msgs@@V?$shared_ptr@$$CBU?$AddTwoIntsResponse_@V?$allocator@X@std@@@simple_msgs@@@mwboost@@Vsimple_msgs_msg_AddTwoIntsResponse_common@@@@AEBV?$shared_ptr@$$CBU?$AddTwoIntsResponse_@V?$allocator@X@std@@@simple_msgs@@@mwboost@@@_mfi@mwboost@@V?$list2@V?$value@PEAV?$ROSSubscriberImpl@U?$AddTwoIntsResponse_@V?$allocator@X@std@@@simple_msgs@@V?$shared_ptr@$$CBU?$AddTwoIntsResponse_@V?$allocator@X@std@@@simple_msgs@@@mwboost@@Vsimple_msgs_msg_AddTwoIntsResponse_common@@@@@_bi@mwboost@@U?$arg@$00@3@@_bi@3@@_bi@mwboost@@@function@detail@mwboost@@SAXAEBTfunction_buffer@234@AEAT5234@W4functor_manager_operation_type@234@@Z
	?manage@?$functor_manager@V?$bind_t@XV?$mf1@XV?$ROSSubscriberImpl@U?$Num_@V?$allocator@X@std@@@simple_msgs@@V?$shared_ptr@$$CBU?$Num_@V?$allocator@X@std@@@simple_msgs@@@mwboost@@Vsimple_msgs_msg_Num_common@@@@AEBV?$shared_ptr@$$CBU?$Num_@V?$allocator@X@std@@@simple_msgs@@@mwboost@@@_mfi@mwboost@@V?$list2@V?$value@PEAV?$ROSSubscriberImpl@U?$Num_@V?$allocator@X@std@@@simple_msgs@@V?$shared_ptr@$$CBU?$Num_@V?$allocator@X@std@@@simple_msgs@@@mwboost@@Vsimple_msgs_msg_Num_common@@@@@_bi@mwboost@@U?$arg@$00@3@@_bi@3@@_bi@mwboost@@@function@detail@mwboost@@SAXAEBTfunction_buffer@234@AEAT5234@W4functor_manager_operation_type@234@@Z
	?manage@?$functor_manager@V?$bind_t@_NV?$mf2@_NV?$ROSSvcServerImpl@U?$AddTwoIntsRequest_@V?$allocator@X@std@@@simple_msgs@@U?$AddTwoIntsResponse_@V?$allocator@X@std@@@2@Vsimple_msgs_msg_AddTwoIntsRequest_common@@Vsimple_msgs_msg_AddTwoIntsResponse_common@@@@AEAU?$AddTwoIntsRequest_@V?$allocator@X@std@@@simple_msgs@@AEAU?$AddTwoIntsResponse_@V?$allocator@X@std@@@3@@_mfi@mwboost@@V?$list3@V?$value@PEAV?$ROSSvcServerImpl@U?$AddTwoIntsRequest_@V?$allocator@X@std@@@simple_msgs@@U?$AddTwoIntsResponse_@V?$allocator@X@std@@@2@Vsimple_msgs_msg_AddTwoIntsRequest_common@@Vsimple_msgs_msg_AddTwoIntsResponse_common@@@@@_bi@mwboost@@U?$arg@$00@3@U?$arg@$01@3@@_bi@3@@_bi@mwboost@@@function@detail@mwboost@@SAXAEBTfunction_buffer@234@AEAT5234@W4functor_manager_operation_type@234@@Z
	?manage@?$functor_manager@V?$function@$$A6AXAEBV?$shared_ptr@$$CBU?$AddTwoIntsRequest_@V?$allocator@X@std@@@simple_msgs@@@mwboost@@@Z@mwboost@@@function@detail@mwboost@@SAXAEBTfunction_buffer@234@AEAT5234@W4functor_manager_operation_type@234@@Z
	?manage@?$functor_manager@V?$function@$$A6AXAEBV?$shared_ptr@$$CBU?$AddTwoIntsResponse_@V?$allocator@X@std@@@simple_msgs@@@mwboost@@@Z@mwboost@@@function@detail@mwboost@@SAXAEBTfunction_buffer@234@AEAT5234@W4functor_manager_operation_type@234@@Z
	?manage@?$functor_manager@V?$function@$$A6AXAEBV?$shared_ptr@$$CBU?$Num_@V?$allocator@X@std@@@simple_msgs@@@mwboost@@@Z@mwboost@@@function@detail@mwboost@@SAXAEBTfunction_buffer@234@AEAT5234@W4functor_manager_operation_type@234@@Z
	?manage_ptr@?$functor_manager_common@P6A?AV?$shared_ptr@U?$AddTwoIntsRequest_@V?$allocator@X@std@@@simple_msgs@@@mwboost@@XZ@function@detail@mwboost@@SAXAEBTfunction_buffer@234@AEAT5234@W4functor_manager_operation_type@234@@Z
	?manage_ptr@?$functor_manager_common@P6A?AV?$shared_ptr@U?$AddTwoIntsResponse_@V?$allocator@X@std@@@simple_msgs@@@mwboost@@XZ@function@detail@mwboost@@SAXAEBTfunction_buffer@234@AEAT5234@W4functor_manager_operation_type@234@@Z
	?manage_small@?$functor_manager_common@U?$DefaultMessageCreator@U?$AddTwoIntsRequest_@V?$allocator@X@std@@@simple_msgs@@@ros@@@function@detail@mwboost@@SAXAEBTfunction_buffer@234@AEAT5234@W4functor_manager_operation_type@234@@Z
	?manage_small@?$functor_manager_common@U?$DefaultMessageCreator@U?$AddTwoIntsResponse_@V?$allocator@X@std@@@simple_msgs@@@ros@@@function@detail@mwboost@@SAXAEBTfunction_buffer@234@AEAT5234@W4functor_manager_operation_type@234@@Z
	?manage_small@?$functor_manager_common@U?$DefaultMessageCreator@U?$Num_@V?$allocator@X@std@@@simple_msgs@@@ros@@@function@detail@mwboost@@SAXAEBTfunction_buffer@234@AEAT5234@W4functor_manager_operation_type@234@@Z
	?manage_small@?$functor_manager_common@V?$bind_t@VSerializedMessage@ros@@P6A?AV12@AEBU?$AddTwoIntsRequest_@V?$allocator@X@std@@@simple_msgs@@@ZV?$list1@V?$reference_wrapper@U?$AddTwoIntsRequest_@V?$allocator@X@std@@@simple_msgs@@@mwboost@@@_bi@mwboost@@@_bi@mwboost@@@function@detail@mwboost@@SAXAEBTfunction_buffer@234@AEAT5234@W4functor_manager_operation_type@234@@Z
	?manage_small@?$functor_manager_common@V?$bind_t@VSerializedMessage@ros@@P6A?AV12@AEBU?$AddTwoIntsResponse_@V?$allocator@X@std@@@simple_msgs@@@ZV?$list1@V?$reference_wrapper@U?$AddTwoIntsResponse_@V?$allocator@X@std@@@simple_msgs@@@mwboost@@@_bi@mwboost@@@_bi@mwboost@@@function@detail@mwboost@@SAXAEBTfunction_buffer@234@AEAT5234@W4functor_manager_operation_type@234@@Z
	?manage_small@?$functor_manager_common@V?$bind_t@VSerializedMessage@ros@@P6A?AV12@AEBU?$Num_@V?$allocator@X@std@@@simple_msgs@@@ZV?$list1@V?$reference_wrapper@U?$Num_@V?$allocator@X@std@@@simple_msgs@@@mwboost@@@_bi@mwboost@@@_bi@mwboost@@@function@detail@mwboost@@SAXAEBTfunction_buffer@234@AEAT5234@W4functor_manager_operation_type@234@@Z
	?manage_small@?$functor_manager_common@V?$bind_t@XV?$mf1@XV?$ROSSubscriberImpl@U?$AddTwoIntsRequest_@V?$allocator@X@std@@@simple_msgs@@V?$shared_ptr@$$CBU?$AddTwoIntsRequest_@V?$allocator@X@std@@@simple_msgs@@@mwboost@@Vsimple_msgs_msg_AddTwoIntsRequest_common@@@@AEBV?$shared_ptr@$$CBU?$AddTwoIntsRequest_@V?$allocator@X@std@@@simple_msgs@@@mwboost@@@_mfi@mwboost@@V?$list2@V?$value@PEAV?$ROSSubscriberImpl@U?$AddTwoIntsRequest_@V?$allocator@X@std@@@simple_msgs@@V?$shared_ptr@$$CBU?$AddTwoIntsRequest_@V?$allocator@X@std@@@simple_msgs@@@mwboost@@Vsimple_msgs_msg_AddTwoIntsRequest_common@@@@@_bi@mwboost@@U?$arg@$00@3@@_bi@3@@_bi@mwboost@@@function@detail@mwboost@@SAXAEBTfunction_buffer@234@AEAT5234@W4functor_manager_operation_type@234@@Z
	?manage_small@?$functor_manager_common@V?$bind_t@XV?$mf1@XV?$ROSSubscriberImpl@U?$AddTwoIntsResponse_@V?$allocator@X@std@@@simple_msgs@@V?$shared_ptr@$$CBU?$AddTwoIntsResponse_@V?$allocator@X@std@@@simple_msgs@@@mwboost@@Vsimple_msgs_msg_AddTwoIntsResponse_common@@@@AEBV?$shared_ptr@$$CBU?$AddTwoIntsResponse_@V?$allocator@X@std@@@simple_msgs@@@mwboost@@@_mfi@mwboost@@V?$list2@V?$value@PEAV?$ROSSubscriberImpl@U?$AddTwoIntsResponse_@V?$allocator@X@std@@@simple_msgs@@V?$shared_ptr@$$CBU?$AddTwoIntsResponse_@V?$allocator@X@std@@@simple_msgs@@@mwboost@@Vsimple_msgs_msg_AddTwoIntsResponse_common@@@@@_bi@mwboost@@U?$arg@$00@3@@_bi@3@@_bi@mwboost@@@function@detail@mwboost@@SAXAEBTfunction_buffer@234@AEAT5234@W4functor_manager_operation_type@234@@Z
	?manage_small@?$functor_manager_common@V?$bind_t@XV?$mf1@XV?$ROSSubscriberImpl@U?$Num_@V?$allocator@X@std@@@simple_msgs@@V?$shared_ptr@$$CBU?$Num_@V?$allocator@X@std@@@simple_msgs@@@mwboost@@Vsimple_msgs_msg_Num_common@@@@AEBV?$shared_ptr@$$CBU?$Num_@V?$allocator@X@std@@@simple_msgs@@@mwboost@@@_mfi@mwboost@@V?$list2@V?$value@PEAV?$ROSSubscriberImpl@U?$Num_@V?$allocator@X@std@@@simple_msgs@@V?$shared_ptr@$$CBU?$Num_@V?$allocator@X@std@@@simple_msgs@@@mwboost@@Vsimple_msgs_msg_Num_common@@@@@_bi@mwboost@@U?$arg@$00@3@@_bi@3@@_bi@mwboost@@@function@detail@mwboost@@SAXAEBTfunction_buffer@234@AEAT5234@W4functor_manager_operation_type@234@@Z
	?manage_small@?$functor_manager_common@V?$bind_t@_NV?$mf2@_NV?$ROSSvcServerImpl@U?$AddTwoIntsRequest_@V?$allocator@X@std@@@simple_msgs@@U?$AddTwoIntsResponse_@V?$allocator@X@std@@@2@Vsimple_msgs_msg_AddTwoIntsRequest_common@@Vsimple_msgs_msg_AddTwoIntsResponse_common@@@@AEAU?$AddTwoIntsRequest_@V?$allocator@X@std@@@simple_msgs@@AEAU?$AddTwoIntsResponse_@V?$allocator@X@std@@@3@@_mfi@mwboost@@V?$list3@V?$value@PEAV?$ROSSvcServerImpl@U?$AddTwoIntsRequest_@V?$allocator@X@std@@@simple_msgs@@U?$AddTwoIntsResponse_@V?$allocator@X@std@@@2@Vsimple_msgs_msg_AddTwoIntsRequest_common@@Vsimple_msgs_msg_AddTwoIntsResponse_common@@@@@_bi@mwboost@@U?$arg@$00@3@U?$arg@$01@3@@_bi@3@@_bi@mwboost@@@function@detail@mwboost@@SAXAEBTfunction_buffer@234@AEAT5234@W4functor_manager_operation_type@234@@Z
	?manager@?$functor_manager@V?$function@$$A6AXAEBV?$shared_ptr@$$CBU?$AddTwoIntsRequest_@V?$allocator@X@std@@@simple_msgs@@@mwboost@@@Z@mwboost@@@function@detail@mwboost@@CAXAEBTfunction_buffer@234@AEAT5234@W4functor_manager_operation_type@234@U?$integral_constant@_N$0A@@4@@Z
	?manager@?$functor_manager@V?$function@$$A6AXAEBV?$shared_ptr@$$CBU?$AddTwoIntsResponse_@V?$allocator@X@std@@@simple_msgs@@@mwboost@@@Z@mwboost@@@function@detail@mwboost@@CAXAEBTfunction_buffer@234@AEAT5234@W4functor_manager_operation_type@234@U?$integral_constant@_N$0A@@4@@Z
	?manager@?$functor_manager@V?$function@$$A6AXAEBV?$shared_ptr@$$CBU?$Num_@V?$allocator@X@std@@@simple_msgs@@@mwboost@@@Z@mwboost@@@function@detail@mwboost@@CAXAEBTfunction_buffer@234@AEAT5234@W4functor_manager_operation_type@234@U?$integral_constant@_N$0A@@4@@Z
	?mark_waiting_and_try_lock@basic_timed_mutex@detail@mwboost@@QEAAXAEAJ@Z
	?max_size@?$basic_string@DU?$char_traits@D@std@@V?$allocator@D@2@@std@@QEBA_KXZ
	?message@generic_error_category@detail@system@mwboost@@UEBA?AV?$basic_string@DU?$char_traits@D@std@@V?$allocator@D@2@@std@@H@Z
	?message@generic_error_category@detail@system@mwboost@@UEBAPEBDHPEAD_K@Z
	?move_assign@?$function0@V?$shared_ptr@U?$AddTwoIntsRequest_@V?$allocator@X@std@@@simple_msgs@@@mwboost@@@mwboost@@AEAAXAEAV12@@Z
	?move_assign@?$function0@V?$shared_ptr@U?$AddTwoIntsResponse_@V?$allocator@X@std@@@simple_msgs@@@mwboost@@@mwboost@@AEAAXAEAV12@@Z
	?move_assign@?$function0@V?$shared_ptr@U?$Num_@V?$allocator@X@std@@@simple_msgs@@@mwboost@@@mwboost@@AEAAXAEAV12@@Z
	?move_assign@?$function1@XAEBVSingleSubscriberPublisher@ros@@@mwboost@@AEAAXAEAV12@@Z
	?name@generic_error_category@detail@system@mwboost@@UEBAPEBDXZ
	?operator_fn@?$sp_ms_deleter@U?$AddTwoIntsRequest_@V?$allocator@X@std@@@simple_msgs@@@detail@mwboost@@SAXPEAU?$AddTwoIntsRequest_@V?$allocator@X@std@@@simple_msgs@@@Z
	?operator_fn@?$sp_ms_deleter@U?$AddTwoIntsResponse_@V?$allocator@X@std@@@simple_msgs@@@detail@mwboost@@SAXPEAU?$AddTwoIntsResponse_@V?$allocator@X@std@@@simple_msgs@@@Z
	?operator_fn@?$sp_ms_deleter@U?$Num_@V?$allocator@X@std@@@simple_msgs@@@detail@mwboost@@SAXPEAU?$Num_@V?$allocator@X@std@@@simple_msgs@@@Z
	?operator_fn@?$sp_ms_deleter@V?$ServiceCallbackHelperT@U?$ServiceSpec@U?$AddTwoIntsRequest_@V?$allocator@X@std@@@simple_msgs@@U?$AddTwoIntsResponse_@V?$allocator@X@std@@@2@@ros@@@ros@@@detail@mwboost@@SAXPEAV?$ServiceCallbackHelperT@U?$ServiceSpec@U?$AddTwoIntsRequest_@V?$allocator@X@std@@@simple_msgs@@U?$AddTwoIntsResponse_@V?$allocator@X@std@@@2@@ros@@@ros@@@Z
	?operator_fn@?$sp_ms_deleter@V?$SubscriptionCallbackHelperT@AEBV?$shared_ptr@$$CBU?$AddTwoIntsRequest_@V?$allocator@X@std@@@simple_msgs@@@mwboost@@X@ros@@@detail@mwboost@@SAXPEAV?$SubscriptionCallbackHelperT@AEBV?$shared_ptr@$$CBU?$AddTwoIntsRequest_@V?$allocator@X@std@@@simple_msgs@@@mwboost@@X@ros@@@Z
	?operator_fn@?$sp_ms_deleter@V?$SubscriptionCallbackHelperT@AEBV?$shared_ptr@$$CBU?$AddTwoIntsResponse_@V?$allocator@X@std@@@simple_msgs@@@mwboost@@X@ros@@@detail@mwboost@@SAXPEAV?$SubscriptionCallbackHelperT@AEBV?$shared_ptr@$$CBU?$AddTwoIntsResponse_@V?$allocator@X@std@@@simple_msgs@@@mwboost@@X@ros@@@Z
	?operator_fn@?$sp_ms_deleter@V?$SubscriptionCallbackHelperT@AEBV?$shared_ptr@$$CBU?$Num_@V?$allocator@X@std@@@simple_msgs@@@mwboost@@X@ros@@@detail@mwboost@@SAXPEAV?$SubscriptionCallbackHelperT@AEBV?$shared_ptr@$$CBU?$Num_@V?$allocator@X@std@@@simple_msgs@@@mwboost@@X@ros@@@Z
	?operator_fn@?$sp_ms_deleter@V?$map@V?$basic_string@DU?$char_traits@D@std@@V?$allocator@D@2@@std@@V12@U?$less@V?$basic_string@DU?$char_traits@D@std@@V?$allocator@D@2@@std@@@2@V?$allocator@U?$pair@$$CBV?$basic_string@DU?$char_traits@D@std@@V?$allocator@D@2@@std@@V12@@std@@@2@@std@@@detail@mwboost@@SAXPEAV?$map@V?$basic_string@DU?$char_traits@D@std@@V?$allocator@D@2@@std@@V12@U?$less@V?$basic_string@DU?$char_traits@D@std@@V?$allocator@D@2@@std@@@2@V?$allocator@U?$pair@$$CBV?$basic_string@DU?$char_traits@D@std@@V?$allocator@D@2@@std@@V12@@std@@@2@@std@@@Z
	?publish@?$ROSPublisherImpl@U?$AddTwoIntsRequest_@V?$allocator@X@std@@@simple_msgs@@Vsimple_msgs_msg_AddTwoIntsRequest_common@@@@UEAA_NAEBVStructArray@data@matlab@@@Z
	?publish@?$ROSPublisherImpl@U?$AddTwoIntsResponse_@V?$allocator@X@std@@@simple_msgs@@Vsimple_msgs_msg_AddTwoIntsResponse_common@@@@UEAA_NAEBVStructArray@data@matlab@@@Z
	?publish@?$ROSPublisherImpl@U?$Num_@V?$allocator@X@std@@@simple_msgs@@Vsimple_msgs_msg_Num_common@@@@UEAA_NAEBVStructArray@data@matlab@@@Z
	?publish@MATLABPublisherInterface@@UEAA_NAEBVStructArray@data@matlab@@@Z
	?rbegin@?$vector@U?$pair@W4FunctionType@detail@data@matlab@@V?$basic_string@DU?$char_traits@D@std@@V?$allocator@D@2@@std@@@std@@V?$allocator@U?$pair@W4FunctionType@detail@data@matlab@@V?$basic_string@DU?$char_traits@D@std@@V?$allocator@D@2@@std@@@std@@@2@@std@@QEBA?AV?$reverse_iterator@V?$_Vector_const_iterator@V?$_Vector_val@U?$_Simple_types@U?$pair@W4FunctionType@detail@data@matlab@@V?$basic_string@DU?$char_traits@D@std@@V?$allocator@D@2@@std@@@std@@@std@@@std@@@std@@@2@XZ
	?release@?$refcount_ptr@Uerror_info_container@exception_detail@mwboost@@@exception_detail@mwboost@@AEAAXXZ
	?release@sp_counted_base@detail@mwboost@@QEAAXXZ
	?rend@?$vector@U?$pair@W4FunctionType@detail@data@matlab@@V?$basic_string@DU?$char_traits@D@std@@V?$allocator@D@2@@std@@@std@@V?$allocator@U?$pair@W4FunctionType@detail@data@matlab@@V?$basic_string@DU?$char_traits@D@std@@V?$allocator@D@2@@std@@@std@@@2@@std@@QEBA?AV?$reverse_iterator@V?$_Vector_const_iterator@V?$_Vector_val@U?$_Simple_types@U?$pair@W4FunctionType@detail@data@matlab@@V?$basic_string@DU?$char_traits@D@std@@V?$allocator@D@2@@std@@@std@@@std@@@std@@@std@@@2@XZ
	?rethrow@?$clone_impl@Ubad_alloc_@exception_detail@mwboost@@@exception_detail@mwboost@@$0PPPPPPPM@A@EBAXXZ
	?rethrow@?$clone_impl@Ubad_alloc_@exception_detail@mwboost@@@exception_detail@mwboost@@EEBAXXZ
	?rethrow@?$clone_impl@Ubad_exception_@exception_detail@mwboost@@@exception_detail@mwboost@@$0PPPPPPPM@A@EBAXXZ
	?rethrow@?$clone_impl@Ubad_exception_@exception_detail@mwboost@@@exception_detail@mwboost@@EEBAXXZ
	?rethrow@?$wrapexcept@Vbad_function_call@mwboost@@@mwboost@@UEBAXXZ
	?rethrow@?$wrapexcept@Vthread_resource_error@mwboost@@@mwboost@@UEBAXXZ
	?send_request@?$ROSSvcClientImpl@UAddTwoInts@simple_msgs@@U?$AddTwoIntsRequest_@V?$allocator@X@std@@@2@U?$AddTwoIntsResponse_@V?$allocator@X@std@@@2@Vsimple_msgs_msg_AddTwoIntsRequest_common@@Vsimple_msgs_msg_AddTwoIntsResponse_common@@@@UEAA_NPEAXP6A_N0AEBV?$vector@VArray@data@matlab@@V?$allocator@VArray@data@matlab@@@std@@@std@@@Z_J@Z
	?send_request@MATLABSvcClientInterface@@UEAA_NPEAXP6A_N0AEBV?$vector@VArray@data@matlab@@V?$allocator@VArray@data@matlab@@@std@@@std@@@Z_J@Z
	?setCallbackError@MATLABSvcServerInterface@@UEAAX_N@Z
	?setCommonObjMap@?$ROSBagWriterImpl@U?$AddTwoIntsRequest_@V?$allocator@X@std@@@simple_msgs@@Vsimple_msgs_msg_AddTwoIntsRequest_common@@@@UEAAXPEAV?$map@V?$basic_string@DU?$char_traits@D@std@@V?$allocator@D@2@@std@@V?$shared_ptr@VMATLABROSMsgInterfaceBase@@@mwboost@@U?$less@V?$basic_string@DU?$char_traits@D@std@@V?$allocator@D@2@@std@@@2@V?$allocator@U?$pair@$$CBV?$basic_string@DU?$char_traits@D@std@@V?$allocator@D@2@@std@@V?$shared_ptr@VMATLABROSMsgInterfaceBase@@@mwboost@@@std@@@2@@std@@@Z
	?setCommonObjMap@?$ROSBagWriterImpl@U?$AddTwoIntsResponse_@V?$allocator@X@std@@@simple_msgs@@Vsimple_msgs_msg_AddTwoIntsResponse_common@@@@UEAAXPEAV?$map@V?$basic_string@DU?$char_traits@D@std@@V?$allocator@D@2@@std@@V?$shared_ptr@VMATLABROSMsgInterfaceBase@@@mwboost@@U?$less@V?$basic_string@DU?$char_traits@D@std@@V?$allocator@D@2@@std@@@2@V?$allocator@U?$pair@$$CBV?$basic_string@DU?$char_traits@D@std@@V?$allocator@D@2@@std@@V?$shared_ptr@VMATLABROSMsgInterfaceBase@@@mwboost@@@std@@@2@@std@@@Z
	?setCommonObjMap@?$ROSBagWriterImpl@U?$Num_@V?$allocator@X@std@@@simple_msgs@@Vsimple_msgs_msg_Num_common@@@@UEAAXPEAV?$map@V?$basic_string@DU?$char_traits@D@std@@V?$allocator@D@2@@std@@V?$shared_ptr@VMATLABROSMsgInterfaceBase@@@mwboost@@U?$less@V?$basic_string@DU?$char_traits@D@std@@V?$allocator@D@2@@std@@@2@V?$allocator@U?$pair@$$CBV?$basic_string@DU?$char_traits@D@std@@V?$allocator@D@2@@std@@V?$shared_ptr@VMATLABROSMsgInterfaceBase@@@mwboost@@@std@@@2@@std@@@Z
	?setCommonObjMap@?$ROSPublisherImpl@U?$AddTwoIntsRequest_@V?$allocator@X@std@@@simple_msgs@@Vsimple_msgs_msg_AddTwoIntsRequest_common@@@@UEAAXPEAV?$map@V?$basic_string@DU?$char_traits@D@std@@V?$allocator@D@2@@std@@V?$shared_ptr@VMATLABROSMsgInterfaceBase@@@mwboost@@U?$less@V?$basic_string@DU?$char_traits@D@std@@V?$allocator@D@2@@std@@@2@V?$allocator@U?$pair@$$CBV?$basic_string@DU?$char_traits@D@std@@V?$allocator@D@2@@std@@V?$shared_ptr@VMATLABROSMsgInterfaceBase@@@mwboost@@@std@@@2@@std@@@Z
	?setCommonObjMap@?$ROSPublisherImpl@U?$AddTwoIntsResponse_@V?$allocator@X@std@@@simple_msgs@@Vsimple_msgs_msg_AddTwoIntsResponse_common@@@@UEAAXPEAV?$map@V?$basic_string@DU?$char_traits@D@std@@V?$allocator@D@2@@std@@V?$shared_ptr@VMATLABROSMsgInterfaceBase@@@mwboost@@U?$less@V?$basic_string@DU?$char_traits@D@std@@V?$allocator@D@2@@std@@@2@V?$allocator@U?$pair@$$CBV?$basic_string@DU?$char_traits@D@std@@V?$allocator@D@2@@std@@V?$shared_ptr@VMATLABROSMsgInterfaceBase@@@mwboost@@@std@@@2@@std@@@Z
	?setCommonObjMap@?$ROSPublisherImpl@U?$Num_@V?$allocator@X@std@@@simple_msgs@@Vsimple_msgs_msg_Num_common@@@@UEAAXPEAV?$map@V?$basic_string@DU?$char_traits@D@std@@V?$allocator@D@2@@std@@V?$shared_ptr@VMATLABROSMsgInterfaceBase@@@mwboost@@U?$less@V?$basic_string@DU?$char_traits@D@std@@V?$allocator@D@2@@std@@@2@V?$allocator@U?$pair@$$CBV?$basic_string@DU?$char_traits@D@std@@V?$allocator@D@2@@std@@V?$shared_ptr@VMATLABROSMsgInterfaceBase@@@mwboost@@@std@@@2@@std@@@Z
	?setCommonObjMap@?$ROSSubscriberImpl@U?$AddTwoIntsRequest_@V?$allocator@X@std@@@simple_msgs@@V?$shared_ptr@$$CBU?$AddTwoIntsRequest_@V?$allocator@X@std@@@simple_msgs@@@mwboost@@Vsimple_msgs_msg_AddTwoIntsRequest_common@@@@UEAAXPEAV?$map@V?$basic_string@DU?$char_traits@D@std@@V?$allocator@D@2@@std@@V?$shared_ptr@VMATLABROSMsgInterfaceBase@@@mwboost@@U?$less@V?$basic_string@DU?$char_traits@D@std@@V?$allocator@D@2@@std@@@2@V?$allocator@U?$pair@$$CBV?$basic_string@DU?$char_traits@D@std@@V?$allocator@D@2@@std@@V?$shared_ptr@VMATLABROSMsgInterfaceBase@@@mwboost@@@std@@@2@@std@@@Z
	?setCommonObjMap@?$ROSSubscriberImpl@U?$AddTwoIntsResponse_@V?$allocator@X@std@@@simple_msgs@@V?$shared_ptr@$$CBU?$AddTwoIntsResponse_@V?$allocator@X@std@@@simple_msgs@@@mwboost@@Vsimple_msgs_msg_AddTwoIntsResponse_common@@@@UEAAXPEAV?$map@V?$basic_string@DU?$char_traits@D@std@@V?$allocator@D@2@@std@@V?$shared_ptr@VMATLABROSMsgInterfaceBase@@@mwboost@@U?$less@V?$basic_string@DU?$char_traits@D@std@@V?$allocator@D@2@@std@@@2@V?$allocator@U?$pair@$$CBV?$basic_string@DU?$char_traits@D@std@@V?$allocator@D@2@@std@@V?$shared_ptr@VMATLABROSMsgInterfaceBase@@@mwboost@@@std@@@2@@std@@@Z
	?setCommonObjMap@?$ROSSubscriberImpl@U?$Num_@V?$allocator@X@std@@@simple_msgs@@V?$shared_ptr@$$CBU?$Num_@V?$allocator@X@std@@@simple_msgs@@@mwboost@@Vsimple_msgs_msg_Num_common@@@@UEAAXPEAV?$map@V?$basic_string@DU?$char_traits@D@std@@V?$allocator@D@2@@std@@V?$shared_ptr@VMATLABROSMsgInterfaceBase@@@mwboost@@U?$less@V?$basic_string@DU?$char_traits@D@std@@V?$allocator@D@2@@std@@@2@V?$allocator@U?$pair@$$CBV?$basic_string@DU?$char_traits@D@std@@V?$allocator@D@2@@std@@V?$shared_ptr@VMATLABROSMsgInterfaceBase@@@mwboost@@@std@@@2@@std@@@Z
	?setCommonObjMap@?$ROSSvcClientImpl@UAddTwoInts@simple_msgs@@U?$AddTwoIntsRequest_@V?$allocator@X@std@@@2@U?$AddTwoIntsResponse_@V?$allocator@X@std@@@2@Vsimple_msgs_msg_AddTwoIntsRequest_common@@Vsimple_msgs_msg_AddTwoIntsResponse_common@@@@UEAAXPEAV?$map@V?$basic_string@DU?$char_traits@D@std@@V?$allocator@D@2@@std@@V?$shared_ptr@VMATLABROSMsgInterfaceBase@@@mwboost@@U?$less@V?$basic_string@DU?$char_traits@D@std@@V?$allocator@D@2@@std@@@2@V?$allocator@U?$pair@$$CBV?$basic_string@DU?$char_traits@D@std@@V?$allocator@D@2@@std@@V?$shared_ptr@VMATLABROSMsgInterfaceBase@@@mwboost@@@std@@@2@@std@@@Z
	?setCommonObjMap@?$ROSSvcServerImpl@U?$AddTwoIntsRequest_@V?$allocator@X@std@@@simple_msgs@@U?$AddTwoIntsResponse_@V?$allocator@X@std@@@2@Vsimple_msgs_msg_AddTwoIntsRequest_common@@Vsimple_msgs_msg_AddTwoIntsResponse_common@@@@UEAAXPEAV?$map@V?$basic_string@DU?$char_traits@D@std@@V?$allocator@D@2@@std@@V?$shared_ptr@VMATLABROSMsgInterfaceBase@@@mwboost@@U?$less@V?$basic_string@DU?$char_traits@D@std@@V?$allocator@D@2@@std@@@2@V?$allocator@U?$pair@$$CBV?$basic_string@DU?$char_traits@D@std@@V?$allocator@D@2@@std@@V?$shared_ptr@VMATLABROSMsgInterfaceBase@@@mwboost@@@std@@@2@@std@@@Z
	?setCommonObjMap@MATLABPublisherInterface@@UEAAXPEAV?$map@V?$basic_string@DU?$char_traits@D@std@@V?$allocator@D@2@@std@@V?$shared_ptr@VMATLABROSMsgInterfaceBase@@@mwboost@@U?$less@V?$basic_string@DU?$char_traits@D@std@@V?$allocator@D@2@@std@@@2@V?$allocator@U?$pair@$$CBV?$basic_string@DU?$char_traits@D@std@@V?$allocator@D@2@@std@@V?$shared_ptr@VMATLABROSMsgInterfaceBase@@@mwboost@@@std@@@2@@std@@@Z
	?setCommonObjMap@MATLABRosbagWriterInterface@@UEAAXPEAV?$map@V?$basic_string@DU?$char_traits@D@std@@V?$allocator@D@2@@std@@V?$shared_ptr@VMATLABROSMsgInterfaceBase@@@mwboost@@U?$less@V?$basic_string@DU?$char_traits@D@std@@V?$allocator@D@2@@std@@@2@V?$allocator@U?$pair@$$CBV?$basic_string@DU?$char_traits@D@std@@V?$allocator@D@2@@std@@V?$shared_ptr@VMATLABROSMsgInterfaceBase@@@mwboost@@@std@@@2@@std@@@Z
	?setCommonObjMap@MATLABSubscriberInterface@@UEAAXPEAV?$map@V?$basic_string@DU?$char_traits@D@std@@V?$allocator@D@2@@std@@V?$shared_ptr@VMATLABROSMsgInterfaceBase@@@mwboost@@U?$less@V?$basic_string@DU?$char_traits@D@std@@V?$allocator@D@2@@std@@@2@V?$allocator@U?$pair@$$CBV?$basic_string@DU?$char_traits@D@std@@V?$allocator@D@2@@std@@V?$shared_ptr@VMATLABROSMsgInterfaceBase@@@mwboost@@@std@@@2@@std@@@Z
	?setCommonObjMap@MATLABSvcClientInterface@@UEAAXPEAV?$map@V?$basic_string@DU?$char_traits@D@std@@V?$allocator@D@2@@std@@V?$shared_ptr@VMATLABROSMsgInterfaceBase@@@mwboost@@U?$less@V?$basic_string@DU?$char_traits@D@std@@V?$allocator@D@2@@std@@@2@V?$allocator@U?$pair@$$CBV?$basic_string@DU?$char_traits@D@std@@V?$allocator@D@2@@std@@V?$shared_ptr@VMATLABROSMsgInterfaceBase@@@mwboost@@@std@@@2@@std@@@Z
	?setCommonObjMap@MATLABSvcServerInterface@@UEAAXPEAV?$map@V?$basic_string@DU?$char_traits@D@std@@V?$allocator@D@2@@std@@V?$shared_ptr@VMATLABROSMsgInterfaceBase@@@mwboost@@U?$less@V?$basic_string@DU?$char_traits@D@std@@V?$allocator@D@2@@std@@@2@V?$allocator@U?$pair@$$CBV?$basic_string@DU?$char_traits@D@std@@V?$allocator@D@2@@std@@V?$shared_ptr@VMATLABROSMsgInterfaceBase@@@mwboost@@@std@@@2@@std@@@Z
	?setNextRequest@?$ROSSvcClientImpl@UAddTwoInts@simple_msgs@@U?$AddTwoIntsRequest_@V?$allocator@X@std@@@2@U?$AddTwoIntsResponse_@V?$allocator@X@std@@@2@Vsimple_msgs_msg_AddTwoIntsRequest_common@@Vsimple_msgs_msg_AddTwoIntsResponse_common@@@@UEAA_NXZ
	?setNextRequest@MATLABSvcClientInterface@@UEAA_NXZ
	?setNextRequestTimeoutState@MATLABSvcClientInterface@@IEAAX_N@Z
	?setResponseFromMatlab@?$ROSSvcServerImpl@U?$AddTwoIntsRequest_@V?$allocator@X@std@@@simple_msgs@@U?$AddTwoIntsResponse_@V?$allocator@X@std@@@2@Vsimple_msgs_msg_AddTwoIntsRequest_common@@Vsimple_msgs_msg_AddTwoIntsResponse_common@@@@UEAA_NVStructArray@data@matlab@@@Z
	?setResponseFromMatlab@MATLABSvcServerInterface@@UEAA_NVStructArray@data@matlab@@@Z
	?sp_enable_shared_from_this@detail@mwboost@@YAXZZ
	?swap@?$function0@V?$shared_ptr@U?$AddTwoIntsRequest_@V?$allocator@X@std@@@simple_msgs@@@mwboost@@@mwboost@@QEAAXAEAV12@@Z
	?swap@?$function0@V?$shared_ptr@U?$AddTwoIntsResponse_@V?$allocator@X@std@@@simple_msgs@@@mwboost@@@mwboost@@QEAAXAEAV12@@Z
	?swap@?$function0@V?$shared_ptr@U?$Num_@V?$allocator@X@std@@@simple_msgs@@@mwboost@@@mwboost@@QEAAXAEAV12@@Z
	?swap@?$function1@XAEBVSingleSubscriberPublisher@ros@@@mwboost@@QEAAXAEAV12@@Z
	?swap@?$shared_array@E@mwboost@@QEAAXAEAV12@@Z
	?swap@?$shared_ptr@$$CBU?$AddTwoIntsRequest_@V?$allocator@X@std@@@simple_msgs@@@mwboost@@QEAAXAEAV12@@Z
	?swap@?$shared_ptr@$$CBU?$AddTwoIntsResponse_@V?$allocator@X@std@@@simple_msgs@@@mwboost@@QEAAXAEAV12@@Z
	?swap@?$shared_ptr@$$CBU?$Num_@V?$allocator@X@std@@@simple_msgs@@@mwboost@@QEAAXAEAV12@@Z
	?swap@?$shared_ptr@$$CBX@mwboost@@QEAAXAEAV12@@Z
	?swap@?$shared_ptr@U?$AddTwoIntsRequest_@V?$allocator@X@std@@@simple_msgs@@@mwboost@@QEAAXAEAV12@@Z
	?swap@?$shared_ptr@U?$AddTwoIntsResponse_@V?$allocator@X@std@@@simple_msgs@@@mwboost@@QEAAXAEAV12@@Z
	?swap@?$shared_ptr@U?$Num_@V?$allocator@X@std@@@simple_msgs@@@mwboost@@QEAAXAEAV12@@Z
	?swap@?$shared_ptr@V?$map@V?$basic_string@DU?$char_traits@D@std@@V?$allocator@D@2@@std@@V12@U?$less@V?$basic_string@DU?$char_traits@D@std@@V?$allocator@D@2@@std@@@2@V?$allocator@U?$pair@$$CBV?$basic_string@DU?$char_traits@D@std@@V?$allocator@D@2@@std@@V12@@std@@@2@@std@@@mwboost@@QEAAXAEAV12@@Z
	?swap@?$shared_ptr@VServiceCallbackHelper@ros@@@mwboost@@QEAAXAEAV12@@Z
	?swap@?$shared_ptr@VSubscriptionCallbackHelper@ros@@@mwboost@@QEAAXAEAV12@@Z
	?throwIfError@detail@data@matlab@@YAXHAEBV?$basic_string@DU?$char_traits@D@std@@V?$allocator@D@2@@std@@@Z
	?throw_exception_assert_compatibility@mwboost@@YAXAEBVexception@std@@@Z
	?try_lock@basic_timed_mutex@detail@mwboost@@QEAA_NXZ
	?unlock@?$basic_recursive_mutex_impl@Ubasic_timed_mutex@detail@mwboost@@@detail@mwboost@@QEAAXXZ
	?unlock@basic_timed_mutex@detail@mwboost@@QEAAXXZ
	?what@?$ArrayException@VException@matlab@@$00@detail@data@matlab@@UEBAPEBDXZ
	?what@?$ArrayException@VException@matlab@@$00@detail@data@matlab@@W7EBAPEBDXZ
	?what@?$ArrayException@VException@matlab@@$01@detail@data@matlab@@UEBAPEBDXZ
	?what@?$ArrayException@VException@matlab@@$01@detail@data@matlab@@W7EBAPEBDXZ
	?what@?$ArrayException@VException@matlab@@$02@detail@data@matlab@@UEBAPEBDXZ
	?what@?$ArrayException@VException@matlab@@$02@detail@data@matlab@@W7EBAPEBDXZ
	?what@?$ArrayException@VException@matlab@@$04@detail@data@matlab@@UEBAPEBDXZ
	?what@?$ArrayException@VException@matlab@@$04@detail@data@matlab@@W7EBAPEBDXZ
	?what@?$ArrayException@VException@matlab@@$05@detail@data@matlab@@UEBAPEBDXZ
	?what@?$ArrayException@VException@matlab@@$05@detail@data@matlab@@W7EBAPEBDXZ
	?what@?$ArrayException@VException@matlab@@$06@detail@data@matlab@@UEBAPEBDXZ
	?what@?$ArrayException@VException@matlab@@$06@detail@data@matlab@@W7EBAPEBDXZ
	?what@?$ArrayException@VException@matlab@@$07@detail@data@matlab@@UEBAPEBDXZ
	?what@?$ArrayException@VException@matlab@@$07@detail@data@matlab@@W7EBAPEBDXZ
	?what@?$ArrayException@VException@matlab@@$08@detail@data@matlab@@UEBAPEBDXZ
	?what@?$ArrayException@VException@matlab@@$08@detail@data@matlab@@W7EBAPEBDXZ
	?what@?$ArrayException@VException@matlab@@$09@detail@data@matlab@@UEBAPEBDXZ
	?what@?$ArrayException@VException@matlab@@$09@detail@data@matlab@@W7EBAPEBDXZ
	?what@?$ArrayException@VException@matlab@@$0BA@@detail@data@matlab@@UEBAPEBDXZ
	?what@?$ArrayException@VException@matlab@@$0BA@@detail@data@matlab@@W7EBAPEBDXZ
	?what@?$ArrayException@VException@matlab@@$0BC@@detail@data@matlab@@UEBAPEBDXZ
	?what@?$ArrayException@VException@matlab@@$0BC@@detail@data@matlab@@W7EBAPEBDXZ
	?what@?$ArrayException@VException@matlab@@$0BD@@detail@data@matlab@@UEBAPEBDXZ
	?what@?$ArrayException@VException@matlab@@$0BD@@detail@data@matlab@@W7EBAPEBDXZ
	?what@?$ArrayException@VException@matlab@@$0BE@@detail@data@matlab@@UEBAPEBDXZ
	?what@?$ArrayException@VException@matlab@@$0BE@@detail@data@matlab@@W7EBAPEBDXZ
	?what@?$ArrayException@VException@matlab@@$0BF@@detail@data@matlab@@UEBAPEBDXZ
	?what@?$ArrayException@VException@matlab@@$0BF@@detail@data@matlab@@W7EBAPEBDXZ
	?what@?$ArrayException@VException@matlab@@$0BG@@detail@data@matlab@@UEBAPEBDXZ
	?what@?$ArrayException@VException@matlab@@$0BG@@detail@data@matlab@@W7EBAPEBDXZ
	?what@?$ArrayException@VException@matlab@@$0BH@@detail@data@matlab@@UEBAPEBDXZ
	?what@?$ArrayException@VException@matlab@@$0BH@@detail@data@matlab@@W7EBAPEBDXZ
	?what@?$ArrayException@VException@matlab@@$0BI@@detail@data@matlab@@UEBAPEBDXZ
	?what@?$ArrayException@VException@matlab@@$0BI@@detail@data@matlab@@W7EBAPEBDXZ
	?what@?$ArrayException@VException@matlab@@$0BJ@@detail@data@matlab@@UEBAPEBDXZ
	?what@?$ArrayException@VException@matlab@@$0BJ@@detail@data@matlab@@W7EBAPEBDXZ
	?what@?$ArrayException@VException@matlab@@$0BK@@detail@data@matlab@@UEBAPEBDXZ
	?what@?$ArrayException@VException@matlab@@$0BK@@detail@data@matlab@@W7EBAPEBDXZ
	?what@?$ArrayException@VException@matlab@@$0BL@@detail@data@matlab@@UEBAPEBDXZ
	?what@?$ArrayException@VException@matlab@@$0BL@@detail@data@matlab@@W7EBAPEBDXZ
	?what@?$ArrayException@VException@matlab@@$0BM@@detail@data@matlab@@UEBAPEBDXZ
	?what@?$ArrayException@VException@matlab@@$0BM@@detail@data@matlab@@W7EBAPEBDXZ
	?what@?$ArrayException@VException@matlab@@$0BN@@detail@data@matlab@@UEBAPEBDXZ
	?what@?$ArrayException@VException@matlab@@$0BN@@detail@data@matlab@@W7EBAPEBDXZ
	?what@?$ArrayException@VException@matlab@@$0N@@detail@data@matlab@@UEBAPEBDXZ
	?what@?$ArrayException@VException@matlab@@$0N@@detail@data@matlab@@W7EBAPEBDXZ
	?what@?$ArrayException@VException@matlab@@$0O@@detail@data@matlab@@UEBAPEBDXZ
	?what@?$ArrayException@VException@matlab@@$0O@@detail@data@matlab@@W7EBAPEBDXZ
	?what@?$ArrayException@VException@matlab@@$0P@@detail@data@matlab@@UEBAPEBDXZ
	?what@?$ArrayException@VException@matlab@@$0P@@detail@data@matlab@@W7EBAPEBDXZ
	?what@exception@std@@UEBAPEBDXZ
	?what@system_error@system@mwboost@@UEBAPEBDXZ
	?write@?$ROSBagWriterImpl@U?$AddTwoIntsRequest_@V?$allocator@X@std@@@simple_msgs@@Vsimple_msgs_msg_AddTwoIntsRequest_common@@@@UEAA_NAEBV?$basic_string@DU?$char_traits@D@std@@V?$allocator@D@2@@std@@AEBI1AEBVStructArray@data@matlab@@@Z
	?write@?$ROSBagWriterImpl@U?$AddTwoIntsResponse_@V?$allocator@X@std@@@simple_msgs@@Vsimple_msgs_msg_AddTwoIntsResponse_common@@@@UEAA_NAEBV?$basic_string@DU?$char_traits@D@std@@V?$allocator@D@2@@std@@AEBI1AEBVStructArray@data@matlab@@@Z
	?write@?$ROSBagWriterImpl@U?$Num_@V?$allocator@X@std@@@simple_msgs@@Vsimple_msgs_msg_Num_common@@@@UEAA_NAEBV?$basic_string@DU?$char_traits@D@std@@V?$allocator@D@2@@std@@AEBI1AEBVStructArray@data@matlab@@@Z
	?write@MATLABRosbagWriterInterface@@UEAA_NAEBV?$basic_string@DU?$char_traits@D@std@@V?$allocator@D@2@@std@@AEBI1AEBVStructArray@data@matlab@@@Z
